
bomb:     file format elf32-i386


Disassembly of section .init:

080486c8 <_init>:
 80486c8:	55                   	push   %ebp
 80486c9:	89 e5                	mov    %esp,%ebp
 80486cb:	53                   	push   %ebx
 80486cc:	83 ec 04             	sub    $0x4,%esp
 80486cf:	e8 00 00 00 00       	call   80486d4 <_init+0xc>
 80486d4:	5b                   	pop    %ebx
 80486d5:	81 c3 0c 2a 00 00    	add    $0x2a0c,%ebx
 80486db:	8b 93 fc ff ff ff    	mov    -0x4(%ebx),%edx
 80486e1:	85 d2                	test   %edx,%edx
 80486e3:	74 05                	je     80486ea <_init+0x22>
 80486e5:	e8 5e 00 00 00       	call   8048748 <__gmon_start__@plt>
 80486ea:	e8 81 02 00 00       	call   8048970 <frame_dummy>
 80486ef:	e8 dc 17 00 00       	call   8049ed0 <__do_global_ctors_aux>
 80486f4:	58                   	pop    %eax
 80486f5:	5b                   	pop    %ebx
 80486f6:	c9                   	leave  
 80486f7:	c3                   	ret    

Disassembly of section .plt:

080486f8 <__errno_location@plt-0x10>:
 80486f8:	ff 35 e4 b0 04 08    	pushl  0x804b0e4
 80486fe:	ff 25 e8 b0 04 08    	jmp    *0x804b0e8
 8048704:	00 00                	add    %al,(%eax)
	...

08048708 <__errno_location@plt>:
 8048708:	ff 25 ec b0 04 08    	jmp    *0x804b0ec
 804870e:	68 00 00 00 00       	push   $0x0
 8048713:	e9 e0 ff ff ff       	jmp    80486f8 <_init+0x30>

08048718 <sprintf@plt>:
 8048718:	ff 25 f0 b0 04 08    	jmp    *0x804b0f0
 804871e:	68 08 00 00 00       	push   $0x8
 8048723:	e9 d0 ff ff ff       	jmp    80486f8 <_init+0x30>

08048728 <connect@plt>:
 8048728:	ff 25 f4 b0 04 08    	jmp    *0x804b0f4
 804872e:	68 10 00 00 00       	push   $0x10
 8048733:	e9 c0 ff ff ff       	jmp    80486f8 <_init+0x30>

08048738 <signal@plt>:
 8048738:	ff 25 f8 b0 04 08    	jmp    *0x804b0f8
 804873e:	68 18 00 00 00       	push   $0x18
 8048743:	e9 b0 ff ff ff       	jmp    80486f8 <_init+0x30>

08048748 <__gmon_start__@plt>:
 8048748:	ff 25 fc b0 04 08    	jmp    *0x804b0fc
 804874e:	68 20 00 00 00       	push   $0x20
 8048753:	e9 a0 ff ff ff       	jmp    80486f8 <_init+0x30>

08048758 <__isoc99_sscanf@plt>:
 8048758:	ff 25 00 b1 04 08    	jmp    *0x804b100
 804875e:	68 28 00 00 00       	push   $0x28
 8048763:	e9 90 ff ff ff       	jmp    80486f8 <_init+0x30>

08048768 <getenv@plt>:
 8048768:	ff 25 04 b1 04 08    	jmp    *0x804b104
 804876e:	68 30 00 00 00       	push   $0x30
 8048773:	e9 80 ff ff ff       	jmp    80486f8 <_init+0x30>

08048778 <write@plt>:
 8048778:	ff 25 08 b1 04 08    	jmp    *0x804b108
 804877e:	68 38 00 00 00       	push   $0x38
 8048783:	e9 70 ff ff ff       	jmp    80486f8 <_init+0x30>

08048788 <fgets@plt>:
 8048788:	ff 25 0c b1 04 08    	jmp    *0x804b10c
 804878e:	68 40 00 00 00       	push   $0x40
 8048793:	e9 60 ff ff ff       	jmp    80486f8 <_init+0x30>

08048798 <__libc_start_main@plt>:
 8048798:	ff 25 10 b1 04 08    	jmp    *0x804b110
 804879e:	68 48 00 00 00       	push   $0x48
 80487a3:	e9 50 ff ff ff       	jmp    80486f8 <_init+0x30>

080487a8 <read@plt>:
 80487a8:	ff 25 14 b1 04 08    	jmp    *0x804b114
 80487ae:	68 50 00 00 00       	push   $0x50
 80487b3:	e9 40 ff ff ff       	jmp    80486f8 <_init+0x30>

080487b8 <strtol@plt>:
 80487b8:	ff 25 18 b1 04 08    	jmp    *0x804b118
 80487be:	68 58 00 00 00       	push   $0x58
 80487c3:	e9 30 ff ff ff       	jmp    80486f8 <_init+0x30>

080487c8 <fflush@plt>:
 80487c8:	ff 25 1c b1 04 08    	jmp    *0x804b11c
 80487ce:	68 60 00 00 00       	push   $0x60
 80487d3:	e9 20 ff ff ff       	jmp    80486f8 <_init+0x30>

080487d8 <socket@plt>:
 80487d8:	ff 25 20 b1 04 08    	jmp    *0x804b120
 80487de:	68 68 00 00 00       	push   $0x68
 80487e3:	e9 10 ff ff ff       	jmp    80486f8 <_init+0x30>

080487e8 <__ctype_b_loc@plt>:
 80487e8:	ff 25 24 b1 04 08    	jmp    *0x804b124
 80487ee:	68 70 00 00 00       	push   $0x70
 80487f3:	e9 00 ff ff ff       	jmp    80486f8 <_init+0x30>

080487f8 <bcopy@plt>:
 80487f8:	ff 25 28 b1 04 08    	jmp    *0x804b128
 80487fe:	68 78 00 00 00       	push   $0x78
 8048803:	e9 f0 fe ff ff       	jmp    80486f8 <_init+0x30>

08048808 <memcpy@plt>:
 8048808:	ff 25 2c b1 04 08    	jmp    *0x804b12c
 804880e:	68 80 00 00 00       	push   $0x80
 8048813:	e9 e0 fe ff ff       	jmp    80486f8 <_init+0x30>

08048818 <fopen@plt>:
 8048818:	ff 25 30 b1 04 08    	jmp    *0x804b130
 804881e:	68 88 00 00 00       	push   $0x88
 8048823:	e9 d0 fe ff ff       	jmp    80486f8 <_init+0x30>

08048828 <alarm@plt>:
 8048828:	ff 25 34 b1 04 08    	jmp    *0x804b134
 804882e:	68 90 00 00 00       	push   $0x90
 8048833:	e9 c0 fe ff ff       	jmp    80486f8 <_init+0x30>

08048838 <strcpy@plt>:
 8048838:	ff 25 38 b1 04 08    	jmp    *0x804b138
 804883e:	68 98 00 00 00       	push   $0x98
 8048843:	e9 b0 fe ff ff       	jmp    80486f8 <_init+0x30>

08048848 <printf@plt>:
 8048848:	ff 25 3c b1 04 08    	jmp    *0x804b13c
 804884e:	68 a0 00 00 00       	push   $0xa0
 8048853:	e9 a0 fe ff ff       	jmp    80486f8 <_init+0x30>

08048858 <strcasecmp@plt>:
 8048858:	ff 25 40 b1 04 08    	jmp    *0x804b140
 804885e:	68 a8 00 00 00       	push   $0xa8
 8048863:	e9 90 fe ff ff       	jmp    80486f8 <_init+0x30>

08048868 <close@plt>:
 8048868:	ff 25 44 b1 04 08    	jmp    *0x804b144
 804886e:	68 b0 00 00 00       	push   $0xb0
 8048873:	e9 80 fe ff ff       	jmp    80486f8 <_init+0x30>

08048878 <fprintf@plt>:
 8048878:	ff 25 48 b1 04 08    	jmp    *0x804b148
 804887e:	68 b8 00 00 00       	push   $0xb8
 8048883:	e9 70 fe ff ff       	jmp    80486f8 <_init+0x30>

08048888 <gethostname@plt>:
 8048888:	ff 25 4c b1 04 08    	jmp    *0x804b14c
 804888e:	68 c0 00 00 00       	push   $0xc0
 8048893:	e9 60 fe ff ff       	jmp    80486f8 <_init+0x30>

08048898 <sleep@plt>:
 8048898:	ff 25 50 b1 04 08    	jmp    *0x804b150
 804889e:	68 c8 00 00 00       	push   $0xc8
 80488a3:	e9 50 fe ff ff       	jmp    80486f8 <_init+0x30>

080488a8 <puts@plt>:
 80488a8:	ff 25 54 b1 04 08    	jmp    *0x804b154
 80488ae:	68 d0 00 00 00       	push   $0xd0
 80488b3:	e9 40 fe ff ff       	jmp    80486f8 <_init+0x30>

080488b8 <gethostbyname@plt>:
 80488b8:	ff 25 58 b1 04 08    	jmp    *0x804b158
 80488be:	68 d8 00 00 00       	push   $0xd8
 80488c3:	e9 30 fe ff ff       	jmp    80486f8 <_init+0x30>

080488c8 <exit@plt>:
 80488c8:	ff 25 5c b1 04 08    	jmp    *0x804b15c
 80488ce:	68 e0 00 00 00       	push   $0xe0
 80488d3:	e9 20 fe ff ff       	jmp    80486f8 <_init+0x30>

Disassembly of section .text:

080488e0 <_start>:
 80488e0:	31 ed                	xor    %ebp,%ebp
 80488e2:	5e                   	pop    %esi
 80488e3:	89 e1                	mov    %esp,%ecx
 80488e5:	83 e4 f0             	and    $0xfffffff0,%esp
 80488e8:	50                   	push   %eax
 80488e9:	54                   	push   %esp
 80488ea:	52                   	push   %edx
 80488eb:	68 60 9e 04 08       	push   $0x8049e60
 80488f0:	68 70 9e 04 08       	push   $0x8049e70
 80488f5:	51                   	push   %ecx
 80488f6:	56                   	push   %esi
 80488f7:	68 94 89 04 08       	push   $0x8048994
 80488fc:	e8 97 fe ff ff       	call   8048798 <__libc_start_main@plt>
 8048901:	f4                   	hlt    
 8048902:	90                   	nop
 8048903:	90                   	nop
 8048904:	90                   	nop
 8048905:	90                   	nop
 8048906:	90                   	nop
 8048907:	90                   	nop
 8048908:	90                   	nop
 8048909:	90                   	nop
 804890a:	90                   	nop
 804890b:	90                   	nop
 804890c:	90                   	nop
 804890d:	90                   	nop
 804890e:	90                   	nop
 804890f:	90                   	nop

08048910 <__do_global_dtors_aux>:
 8048910:	55                   	push   %ebp
 8048911:	89 e5                	mov    %esp,%ebp
 8048913:	53                   	push   %ebx
 8048914:	83 ec 04             	sub    $0x4,%esp
 8048917:	80 3d c4 b8 04 08 00 	cmpb   $0x0,0x804b8c4
 804891e:	75 3f                	jne    804895f <__do_global_dtors_aux+0x4f>
 8048920:	a1 c8 b8 04 08       	mov    0x804b8c8,%eax
 8048925:	bb 0c b0 04 08       	mov    $0x804b00c,%ebx
 804892a:	81 eb 08 b0 04 08    	sub    $0x804b008,%ebx
 8048930:	c1 fb 02             	sar    $0x2,%ebx
 8048933:	83 eb 01             	sub    $0x1,%ebx
 8048936:	39 d8                	cmp    %ebx,%eax
 8048938:	73 1e                	jae    8048958 <__do_global_dtors_aux+0x48>
 804893a:	8d b6 00 00 00 00    	lea    0x0(%esi),%esi
 8048940:	83 c0 01             	add    $0x1,%eax
 8048943:	a3 c8 b8 04 08       	mov    %eax,0x804b8c8
 8048948:	ff 14 85 08 b0 04 08 	call   *0x804b008(,%eax,4)
 804894f:	a1 c8 b8 04 08       	mov    0x804b8c8,%eax
 8048954:	39 d8                	cmp    %ebx,%eax
 8048956:	72 e8                	jb     8048940 <__do_global_dtors_aux+0x30>
 8048958:	c6 05 c4 b8 04 08 01 	movb   $0x1,0x804b8c4
 804895f:	83 c4 04             	add    $0x4,%esp
 8048962:	5b                   	pop    %ebx
 8048963:	5d                   	pop    %ebp
 8048964:	c3                   	ret    
 8048965:	8d 74 26 00          	lea    0x0(%esi,%eiz,1),%esi
 8048969:	8d bc 27 00 00 00 00 	lea    0x0(%edi,%eiz,1),%edi

08048970 <frame_dummy>:
 8048970:	55                   	push   %ebp
 8048971:	89 e5                	mov    %esp,%ebp
 8048973:	83 ec 18             	sub    $0x18,%esp
 8048976:	a1 10 b0 04 08       	mov    0x804b010,%eax
 804897b:	85 c0                	test   %eax,%eax
 804897d:	74 12                	je     8048991 <frame_dummy+0x21>
 804897f:	b8 00 00 00 00       	mov    $0x0,%eax
 8048984:	85 c0                	test   %eax,%eax
 8048986:	74 09                	je     8048991 <frame_dummy+0x21>
 8048988:	c7 04 24 10 b0 04 08 	movl   $0x804b010,(%esp)
 804898f:	ff d0                	call   *%eax
 8048991:	c9                   	leave  
 8048992:	c3                   	ret    
 8048993:	90                   	nop

08048994 <main>:
 8048994:	55                   	push   %ebp
 8048995:	89 e5                	mov    %esp,%ebp
 8048997:	83 e4 f0             	and    $0xfffffff0,%esp
 804899a:	56                   	push   %esi
 804899b:	53                   	push   %ebx
 804899c:	83 ec 18             	sub    $0x18,%esp
 804899f:	8b 45 08             	mov    0x8(%ebp),%eax
 80489a2:	8b 75 0c             	mov    0xc(%ebp),%esi
 80489a5:	83 f8 01             	cmp    $0x1,%eax
 80489a8:	75 0c                	jne    80489b6 <main+0x22>
 80489aa:	a1 a4 b8 04 08       	mov    0x804b8a4,%eax
 80489af:	a3 d0 b8 04 08       	mov    %eax,0x804b8d0
 80489b4:	eb 65                	jmp    8048a1b <main+0x87>
 80489b6:	83 f8 02             	cmp    $0x2,%eax
 80489b9:	75 42                	jne    80489fd <main+0x69>
 80489bb:	8d 5e 04             	lea    0x4(%esi),%ebx
 80489be:	c7 44 24 04 2c 9f 04 	movl   $0x8049f2c,0x4(%esp)
 80489c5:	08 
 80489c6:	8b 03                	mov    (%ebx),%eax
 80489c8:	89 04 24             	mov    %eax,(%esp)
 80489cb:	e8 48 fe ff ff       	call   8048818 <fopen@plt>
 80489d0:	a3 d0 b8 04 08       	mov    %eax,0x804b8d0
 80489d5:	85 c0                	test   %eax,%eax
 80489d7:	75 42                	jne    8048a1b <main+0x87>
 80489d9:	8b 03                	mov    (%ebx),%eax
 80489db:	89 44 24 08          	mov    %eax,0x8(%esp)
 80489df:	8b 06                	mov    (%esi),%eax
 80489e1:	89 44 24 04          	mov    %eax,0x4(%esp)
 80489e5:	c7 04 24 2e 9f 04 08 	movl   $0x8049f2e,(%esp)
 80489ec:	e8 57 fe ff ff       	call   8048848 <printf@plt>
 80489f1:	c7 04 24 08 00 00 00 	movl   $0x8,(%esp)
 80489f8:	e8 cb fe ff ff       	call   80488c8 <exit@plt>
 80489fd:	8b 06                	mov    (%esi),%eax
 80489ff:	89 44 24 04          	mov    %eax,0x4(%esp)
 8048a03:	c7 04 24 4b 9f 04 08 	movl   $0x8049f4b,(%esp)
 8048a0a:	e8 39 fe ff ff       	call   8048848 <printf@plt>
 8048a0f:	c7 04 24 08 00 00 00 	movl   $0x8,(%esp)
 8048a16:	e8 ad fe ff ff       	call   80488c8 <exit@plt>
 8048a1b:	e8 e4 08 00 00       	call   8049304 <initialize_bomb>
 8048a20:	c7 04 24 b0 9f 04 08 	movl   $0x8049fb0,(%esp)
 8048a27:	e8 7c fe ff ff       	call   80488a8 <puts@plt>
 8048a2c:	c7 04 24 ec 9f 04 08 	movl   $0x8049fec,(%esp)
 8048a33:	e8 70 fe ff ff       	call   80488a8 <puts@plt>
 8048a38:	e8 9b 07 00 00       	call   80491d8 <read_line>
 8048a3d:	89 04 24             	mov    %eax,(%esp)
 8048a40:	e8 36 04 00 00       	call   8048e7b <phase_1>
 8048a45:	e8 e4 05 00 00       	call   804902e <phase_defused>
 8048a4a:	c7 04 24 18 a0 04 08 	movl   $0x804a018,(%esp)
 8048a51:	e8 52 fe ff ff       	call   80488a8 <puts@plt>
 8048a56:	e8 7d 07 00 00       	call   80491d8 <read_line>
 8048a5b:	89 04 24             	mov    %eax,(%esp)
 8048a5e:	e8 87 02 00 00       	call   8048cea <phase_2>
 8048a63:	e8 c6 05 00 00       	call   804902e <phase_defused>
 8048a68:	c7 04 24 65 9f 04 08 	movl   $0x8049f65,(%esp)
 8048a6f:	e8 34 fe ff ff       	call   80488a8 <puts@plt>
 8048a74:	e8 5f 07 00 00       	call   80491d8 <read_line>
 8048a79:	89 04 24             	mov    %eax,(%esp)
 8048a7c:	e8 6b 03 00 00       	call   8048dec <phase_3>
 8048a81:	e8 a8 05 00 00       	call   804902e <phase_defused>
 8048a86:	c7 04 24 83 9f 04 08 	movl   $0x8049f83,(%esp)
 8048a8d:	e8 16 fe ff ff       	call   80488a8 <puts@plt>
 8048a92:	e8 41 07 00 00       	call   80491d8 <read_line>
 8048a97:	89 04 24             	mov    %eax,(%esp)
 8048a9a:	e8 e3 02 00 00       	call   8048d82 <phase_4>
 8048a9f:	e8 8a 05 00 00       	call   804902e <phase_defused>
 8048aa4:	c7 04 24 44 a0 04 08 	movl   $0x804a044,(%esp)
 8048aab:	e8 f8 fd ff ff       	call   80488a8 <puts@plt>
 8048ab0:	e8 23 07 00 00       	call   80491d8 <read_line>
 8048ab5:	89 04 24             	mov    %eax,(%esp)
 8048ab8:	e8 74 02 00 00       	call   8048d31 <phase_5>
 8048abd:	e8 6c 05 00 00       	call   804902e <phase_defused>
 8048ac2:	c7 04 24 92 9f 04 08 	movl   $0x8049f92,(%esp)
 8048ac9:	e8 da fd ff ff       	call   80488a8 <puts@plt>
 8048ace:	e8 05 07 00 00       	call   80491d8 <read_line>
 8048ad3:	89 04 24             	mov    %eax,(%esp)
 8048ad6:	e8 36 01 00 00       	call   8048c11 <phase_6>
 8048adb:	e8 4e 05 00 00       	call   804902e <phase_defused>
 8048ae0:	b8 00 00 00 00       	mov    $0x0,%eax
 8048ae5:	83 c4 18             	add    $0x18,%esp
 8048ae8:	5b                   	pop    %ebx
 8048ae9:	5e                   	pop    %esi
 8048aea:	89 ec                	mov    %ebp,%esp
 8048aec:	5d                   	pop    %ebp
 8048aed:	c3                   	ret    
 8048aee:	90                   	nop
 8048aef:	90                   	nop

08048af0 <func4>:
 8048af0:	55                   	push   %ebp
 8048af1:	89 e5                	mov    %esp,%ebp
 8048af3:	83 ec 18             	sub    $0x18,%esp
 8048af6:	89 5d f8             	mov    %ebx,-0x8(%ebp)
 8048af9:	89 75 fc             	mov    %esi,-0x4(%ebp)
 8048afc:	8b 55 08             	mov    0x8(%ebp),%edx
 8048aff:	8b 45 0c             	mov    0xc(%ebp),%eax
 8048b02:	8b 5d 10             	mov    0x10(%ebp),%ebx
 8048b05:	89 d9                	mov    %ebx,%ecx
 8048b07:	29 c1                	sub    %eax,%ecx
 8048b09:	89 ce                	mov    %ecx,%esi
 8048b0b:	c1 ee 1f             	shr    $0x1f,%esi
 8048b0e:	8d 0c 0e             	lea    (%esi,%ecx,1),%ecx
 8048b11:	d1 f9                	sar    %ecx
 8048b13:	01 c1                	add    %eax,%ecx
 8048b15:	39 d1                	cmp    %edx,%ecx
 8048b17:	7e 17                	jle    8048b30 <func4+0x40>
 8048b19:	83 e9 01             	sub    $0x1,%ecx
 8048b1c:	89 4c 24 08          	mov    %ecx,0x8(%esp)
 8048b20:	89 44 24 04          	mov    %eax,0x4(%esp)
 8048b24:	89 14 24             	mov    %edx,(%esp)
 8048b27:	e8 c4 ff ff ff       	call   8048af0 <func4>
 8048b2c:	01 c0                	add    %eax,%eax
 8048b2e:	eb 20                	jmp    8048b50 <func4+0x60>
 8048b30:	b8 00 00 00 00       	mov    $0x0,%eax
 8048b35:	39 d1                	cmp    %edx,%ecx
 8048b37:	7d 17                	jge    8048b50 <func4+0x60>
 8048b39:	89 5c 24 08          	mov    %ebx,0x8(%esp)
 8048b3d:	83 c1 01             	add    $0x1,%ecx
 8048b40:	89 4c 24 04          	mov    %ecx,0x4(%esp)
 8048b44:	89 14 24             	mov    %edx,(%esp)
 8048b47:	e8 a4 ff ff ff       	call   8048af0 <func4>
 8048b4c:	8d 44 00 01          	lea    0x1(%eax,%eax,1),%eax
 8048b50:	8b 5d f8             	mov    -0x8(%ebp),%ebx
 8048b53:	8b 75 fc             	mov    -0x4(%ebp),%esi
 8048b56:	89 ec                	mov    %ebp,%esp
 8048b58:	5d                   	pop    %ebp
 8048b59:	c3                   	ret    

08048b5a <fun7>:
 8048b5a:	55                   	push   %ebp
 8048b5b:	89 e5                	mov    %esp,%ebp
 8048b5d:	53                   	push   %ebx
 8048b5e:	83 ec 14             	sub    $0x14,%esp
 8048b61:	8b 55 08             	mov    0x8(%ebp),%edx
 8048b64:	8b 4d 0c             	mov    0xc(%ebp),%ecx
 8048b67:	b8 ff ff ff ff       	mov    $0xffffffff,%eax
 8048b6c:	85 d2                	test   %edx,%edx
 8048b6e:	74 35                	je     8048ba5 <fun7+0x4b>
 8048b70:	8b 1a                	mov    (%edx),%ebx
 8048b72:	39 cb                	cmp    %ecx,%ebx
 8048b74:	7e 13                	jle    8048b89 <fun7+0x2f>
 8048b76:	89 4c 24 04          	mov    %ecx,0x4(%esp)
 8048b7a:	8b 42 04             	mov    0x4(%edx),%eax
 8048b7d:	89 04 24             	mov    %eax,(%esp)
 8048b80:	e8 d5 ff ff ff       	call   8048b5a <fun7>
 8048b85:	01 c0                	add    %eax,%eax
 8048b87:	eb 1c                	jmp    8048ba5 <fun7+0x4b>
 8048b89:	b8 00 00 00 00       	mov    $0x0,%eax
 8048b8e:	39 cb                	cmp    %ecx,%ebx
 8048b90:	74 13                	je     8048ba5 <fun7+0x4b>
 8048b92:	89 4c 24 04          	mov    %ecx,0x4(%esp)
 8048b96:	8b 42 08             	mov    0x8(%edx),%eax
 8048b99:	89 04 24             	mov    %eax,(%esp)
 8048b9c:	e8 b9 ff ff ff       	call   8048b5a <fun7>
 8048ba1:	8d 44 00 01          	lea    0x1(%eax,%eax,1),%eax
 8048ba5:	83 c4 14             	add    $0x14,%esp
 8048ba8:	5b                   	pop    %ebx
 8048ba9:	5d                   	pop    %ebp
 8048baa:	c3                   	ret    

08048bab <secret_phase>:
 8048bab:	55                   	push   %ebp
 8048bac:	89 e5                	mov    %esp,%ebp
 8048bae:	53                   	push   %ebx
 8048baf:	83 ec 14             	sub    $0x14,%esp
 8048bb2:	e8 21 06 00 00       	call   80491d8 <read_line>
 8048bb7:	c7 44 24 08 0a 00 00 	movl   $0xa,0x8(%esp)
 8048bbe:	00 
 8048bbf:	c7 44 24 04 00 00 00 	movl   $0x0,0x4(%esp)
 8048bc6:	00 
 8048bc7:	89 04 24             	mov    %eax,(%esp)
 8048bca:	e8 e9 fb ff ff       	call   80487b8 <strtol@plt>
 8048bcf:	89 c3                	mov    %eax,%ebx
 8048bd1:	8d 40 ff             	lea    -0x1(%eax),%eax
 8048bd4:	3d e8 03 00 00       	cmp    $0x3e8,%eax
 8048bd9:	76 05                	jbe    8048be0 <secret_phase+0x35>
 8048bdb:	e8 e8 04 00 00       	call   80490c8 <explode_bomb>
 8048be0:	89 5c 24 04          	mov    %ebx,0x4(%esp)
 8048be4:	c7 04 24 90 b6 04 08 	movl   $0x804b690,(%esp)
 8048beb:	e8 6a ff ff ff       	call   8048b5a <fun7>
 8048bf0:	83 f8 07             	cmp    $0x7,%eax
 8048bf3:	74 05                	je     8048bfa <secret_phase+0x4f>
 8048bf5:	e8 ce 04 00 00       	call   80490c8 <explode_bomb>
 8048bfa:	c7 04 24 68 a0 04 08 	movl   $0x804a068,(%esp)
 8048c01:	e8 a2 fc ff ff       	call   80488a8 <puts@plt>
 8048c06:	e8 23 04 00 00       	call   804902e <phase_defused>
 8048c0b:	83 c4 14             	add    $0x14,%esp
 8048c0e:	5b                   	pop    %ebx
 8048c0f:	5d                   	pop    %ebp
 8048c10:	c3                   	ret    

08048c11 <phase_6>:
 8048c11:	55                   	push   %ebp
 8048c12:	89 e5                	mov    %esp,%ebp
 8048c14:	57                   	push   %edi
 8048c15:	56                   	push   %esi
 8048c16:	53                   	push   %ebx
 8048c17:	83 ec 4c             	sub    $0x4c,%esp
 8048c1a:	8d 45 d0             	lea    -0x30(%ebp),%eax
 8048c1d:	89 44 24 04          	mov    %eax,0x4(%esp)
 8048c21:	8b 45 08             	mov    0x8(%ebp),%eax
 8048c24:	89 04 24             	mov    %eax,(%esp)
 8048c27:	e8 de 04 00 00       	call   804910a <read_six_numbers>
 8048c2c:	bf 00 00 00 00       	mov    $0x0,%edi
 8048c31:	8d 75 d0             	lea    -0x30(%ebp),%esi
 8048c34:	8b 04 be             	mov    (%esi,%edi,4),%eax
 8048c37:	83 e8 01             	sub    $0x1,%eax
 8048c3a:	83 f8 05             	cmp    $0x5,%eax
 8048c3d:	76 05                	jbe    8048c44 <phase_6+0x33>
 8048c3f:	e8 84 04 00 00       	call   80490c8 <explode_bomb>
 8048c44:	83 c7 01             	add    $0x1,%edi
 8048c47:	83 ff 06             	cmp    $0x6,%edi
 8048c4a:	74 1a                	je     8048c66 <phase_6+0x55>
 8048c4c:	89 fb                	mov    %edi,%ebx
 8048c4e:	8b 44 be fc          	mov    -0x4(%esi,%edi,4),%eax
 8048c52:	3b 04 9e             	cmp    (%esi,%ebx,4),%eax
 8048c55:	75 05                	jne    8048c5c <phase_6+0x4b>
 8048c57:	e8 6c 04 00 00       	call   80490c8 <explode_bomb>
 8048c5c:	83 c3 01             	add    $0x1,%ebx
 8048c5f:	83 fb 05             	cmp    $0x5,%ebx
 8048c62:	7e ea                	jle    8048c4e <phase_6+0x3d>
 8048c64:	eb ce                	jmp    8048c34 <phase_6+0x23>
 8048c66:	bb 00 00 00 00       	mov    $0x0,%ebx
 8048c6b:	8d 7d d0             	lea    -0x30(%ebp),%edi
 8048c6e:	eb 16                	jmp    8048c86 <phase_6+0x75>
 8048c70:	8b 52 08             	mov    0x8(%edx),%edx
 8048c73:	83 c0 01             	add    $0x1,%eax
 8048c76:	39 c8                	cmp    %ecx,%eax
 8048c78:	75 f6                	jne    8048c70 <phase_6+0x5f>
 8048c7a:	89 54 b5 b8          	mov    %edx,-0x48(%ebp,%esi,4)
 8048c7e:	83 c3 01             	add    $0x1,%ebx
 8048c81:	83 fb 06             	cmp    $0x6,%ebx
 8048c84:	74 16                	je     8048c9c <phase_6+0x8b>
 8048c86:	89 de                	mov    %ebx,%esi
 8048c88:	8b 0c 9f             	mov    (%edi,%ebx,4),%ecx
 8048c8b:	b8 01 00 00 00       	mov    $0x1,%eax
 8048c90:	ba dc b5 04 08       	mov    $0x804b5dc,%edx
 8048c95:	83 f9 01             	cmp    $0x1,%ecx
 8048c98:	7f d6                	jg     8048c70 <phase_6+0x5f>
 8048c9a:	eb de                	jmp    8048c7a <phase_6+0x69>
 8048c9c:	8b 5d b8             	mov    -0x48(%ebp),%ebx
 8048c9f:	8b 45 bc             	mov    -0x44(%ebp),%eax
 8048ca2:	89 43 08             	mov    %eax,0x8(%ebx)
 8048ca5:	8b 55 c0             	mov    -0x40(%ebp),%edx
 8048ca8:	89 50 08             	mov    %edx,0x8(%eax)
 8048cab:	8b 45 c4             	mov    -0x3c(%ebp),%eax
 8048cae:	89 42 08             	mov    %eax,0x8(%edx)
 8048cb1:	8b 55 c8             	mov    -0x38(%ebp),%edx
 8048cb4:	89 50 08             	mov    %edx,0x8(%eax)
 8048cb7:	8b 45 cc             	mov    -0x34(%ebp),%eax
 8048cba:	89 42 08             	mov    %eax,0x8(%edx)
 8048cbd:	c7 40 08 00 00 00 00 	movl   $0x0,0x8(%eax)
 8048cc4:	be 00 00 00 00       	mov    $0x0,%esi
 8048cc9:	8b 43 08             	mov    0x8(%ebx),%eax
 8048ccc:	8b 13                	mov    (%ebx),%edx
 8048cce:	3b 10                	cmp    (%eax),%edx
 8048cd0:	7d 05                	jge    8048cd7 <phase_6+0xc6>
 8048cd2:	e8 f1 03 00 00       	call   80490c8 <explode_bomb>
 8048cd7:	8b 5b 08             	mov    0x8(%ebx),%ebx
 8048cda:	83 c6 01             	add    $0x1,%esi
 8048cdd:	83 fe 05             	cmp    $0x5,%esi
 8048ce0:	75 e7                	jne    8048cc9 <phase_6+0xb8>
 8048ce2:	83 c4 4c             	add    $0x4c,%esp
 8048ce5:	5b                   	pop    %ebx
 8048ce6:	5e                   	pop    %esi
 8048ce7:	5f                   	pop    %edi
 8048ce8:	5d                   	pop    %ebp
 8048ce9:	c3                   	ret    

08048cea <phase_2>:
 8048cea:	55                   	push   %ebp
 8048ceb:	89 e5                	mov    %esp,%ebp
 8048ced:	56                   	push   %esi
 8048cee:	53                   	push   %ebx
 8048cef:	83 ec 30             	sub    $0x30,%esp
 8048cf2:	8d 45 e0             	lea    -0x20(%ebp),%eax
 8048cf5:	89 44 24 04          	mov    %eax,0x4(%esp)
 8048cf9:	8b 45 08             	mov    0x8(%ebp),%eax
 8048cfc:	89 04 24             	mov    %eax,(%esp)
 8048cff:	e8 06 04 00 00       	call   804910a <read_six_numbers>
 8048d04:	83 7d e0 01          	cmpl   $0x1,-0x20(%ebp)
 8048d08:	74 05                	je     8048d0f <phase_2+0x25>
 8048d0a:	e8 b9 03 00 00       	call   80490c8 <explode_bomb>
 8048d0f:	8d 5d e4             	lea    -0x1c(%ebp),%ebx
 8048d12:	8d 75 f8             	lea    -0x8(%ebp),%esi
 8048d15:	8b 43 fc             	mov    -0x4(%ebx),%eax
 8048d18:	01 c0                	add    %eax,%eax
 8048d1a:	39 03                	cmp    %eax,(%ebx)
 8048d1c:	74 05                	je     8048d23 <phase_2+0x39>
 8048d1e:	e8 a5 03 00 00       	call   80490c8 <explode_bomb>
 8048d23:	83 c3 04             	add    $0x4,%ebx
 8048d26:	39 f3                	cmp    %esi,%ebx
 8048d28:	75 eb                	jne    8048d15 <phase_2+0x2b>
 8048d2a:	83 c4 30             	add    $0x30,%esp
 8048d2d:	5b                   	pop    %ebx
 8048d2e:	5e                   	pop    %esi
 8048d2f:	5d                   	pop    %ebp
 8048d30:	c3                   	ret    

08048d31 <phase_5>:
 8048d31:	55                   	push   %ebp
 8048d32:	89 e5                	mov    %esp,%ebp
 8048d34:	57                   	push   %edi
 8048d35:	56                   	push   %esi
 8048d36:	53                   	push   %ebx
 8048d37:	83 ec 1c             	sub    $0x1c,%esp
 8048d3a:	8b 5d 08             	mov    0x8(%ebp),%ebx
 8048d3d:	89 1c 24             	mov    %ebx,(%esp)
 8048d40:	e8 6b 01 00 00       	call   8048eb0 <string_length>
 8048d45:	83 f8 06             	cmp    $0x6,%eax
 8048d48:	74 05                	je     8048d4f <phase_5+0x1e>
 8048d4a:	e8 79 03 00 00       	call   80490c8 <explode_bomb>
 8048d4f:	ba 00 00 00 00       	mov    $0x0,%edx
 8048d54:	b8 00 00 00 00       	mov    $0x0,%eax
 8048d59:	b9 e0 a0 04 08       	mov    $0x804a0e0,%ecx
 8048d5e:	0f be 34 03          	movsbl (%ebx,%eax,1),%esi
 8048d62:	83 e6 0f             	and    $0xf,%esi
 8048d65:	03 14 b1             	add    (%ecx,%esi,4),%edx
 8048d68:	83 c0 01             	add    $0x1,%eax
 8048d6b:	83 f8 06             	cmp    $0x6,%eax
 8048d6e:	75 ee                	jne    8048d5e <phase_5+0x2d>
 8048d70:	83 fa 20             	cmp    $0x20,%edx
 8048d73:	74 05                	je     8048d7a <phase_5+0x49>
 8048d75:	e8 4e 03 00 00       	call   80490c8 <explode_bomb>
 8048d7a:	83 c4 1c             	add    $0x1c,%esp
 8048d7d:	5b                   	pop    %ebx
 8048d7e:	5e                   	pop    %esi
 8048d7f:	5f                   	pop    %edi
 8048d80:	5d                   	pop    %ebp
 8048d81:	c3                   	ret    

08048d82 <phase_4>:
 8048d82:	55                   	push   %ebp
 8048d83:	89 e5                	mov    %esp,%ebp
 8048d85:	83 ec 28             	sub    $0x28,%esp
 8048d88:	8d 45 f0             	lea    -0x10(%ebp),%eax
 8048d8b:	89 44 24 0c          	mov    %eax,0xc(%esp)
 8048d8f:	8d 45 f4             	lea    -0xc(%ebp),%eax
 8048d92:	89 44 24 08          	mov    %eax,0x8(%esp)
 8048d96:	c7 44 24 04 8a a1 04 	movl   $0x804a18a,0x4(%esp)
 8048d9d:	08 
 8048d9e:	8b 45 08             	mov    0x8(%ebp),%eax
 8048da1:	89 04 24             	mov    %eax,(%esp)
 8048da4:	e8 af f9 ff ff       	call   8048758 <__isoc99_sscanf@plt>
 8048da9:	83 f8 02             	cmp    $0x2,%eax
 8048dac:	75 0c                	jne    8048dba <phase_4+0x38>
 8048dae:	8b 45 f4             	mov    -0xc(%ebp),%eax
 8048db1:	85 c0                	test   %eax,%eax
 8048db3:	78 05                	js     8048dba <phase_4+0x38>
 8048db5:	83 f8 0e             	cmp    $0xe,%eax
 8048db8:	7e 05                	jle    8048dbf <phase_4+0x3d>
 8048dba:	e8 09 03 00 00       	call   80490c8 <explode_bomb>
 8048dbf:	c7 44 24 08 0e 00 00 	movl   $0xe,0x8(%esp)
 8048dc6:	00 
 8048dc7:	c7 44 24 04 00 00 00 	movl   $0x0,0x4(%esp)
 8048dce:	00 
 8048dcf:	8b 45 f4             	mov    -0xc(%ebp),%eax
 8048dd2:	89 04 24             	mov    %eax,(%esp)
 8048dd5:	e8 16 fd ff ff       	call   8048af0 <func4>
 8048dda:	83 f8 04             	cmp    $0x4,%eax
 8048ddd:	75 06                	jne    8048de5 <phase_4+0x63>
 8048ddf:	83 7d f0 04          	cmpl   $0x4,-0x10(%ebp)
 8048de3:	74 05                	je     8048dea <phase_4+0x68>
 8048de5:	e8 de 02 00 00       	call   80490c8 <explode_bomb>
 8048dea:	c9                   	leave  
 8048deb:	c3                   	ret    

08048dec <phase_3>:
 8048dec:	55                   	push   %ebp
 8048ded:	89 e5                	mov    %esp,%ebp
 8048def:	83 ec 28             	sub    $0x28,%esp
 8048df2:	8d 45 f0             	lea    -0x10(%ebp),%eax
 8048df5:	89 44 24 0c          	mov    %eax,0xc(%esp)
 8048df9:	8d 45 f4             	lea    -0xc(%ebp),%eax
 8048dfc:	89 44 24 08          	mov    %eax,0x8(%esp)
 8048e00:	c7 44 24 04 8a a1 04 	movl   $0x804a18a,0x4(%esp)
 8048e07:	08 
 8048e08:	8b 45 08             	mov    0x8(%ebp),%eax
 8048e0b:	89 04 24             	mov    %eax,(%esp)
 8048e0e:	e8 45 f9 ff ff       	call   8048758 <__isoc99_sscanf@plt>
 8048e13:	83 f8 01             	cmp    $0x1,%eax
 8048e16:	7f 05                	jg     8048e1d <phase_3+0x31>
 8048e18:	e8 ab 02 00 00       	call   80490c8 <explode_bomb>
 8048e1d:	83 7d f4 07          	cmpl   $0x7,-0xc(%ebp)
 8048e21:	77 42                	ja     8048e65 <phase_3+0x79>
 8048e23:	8b 45 f4             	mov    -0xc(%ebp),%eax
 8048e26:	ff 24 85 c0 a0 04 08 	jmp    *0x804a0c0(,%eax,4)
 8048e2d:	b8 9e 00 00 00       	mov    $0x9e,%eax
 8048e32:	eb 3b                	jmp    8048e6f <phase_3+0x83>
 8048e34:	b8 18 03 00 00       	mov    $0x318,%eax
 8048e39:	eb 34                	jmp    8048e6f <phase_3+0x83>
 8048e3b:	b8 3b 00 00 00       	mov    $0x3b,%eax
 8048e40:	eb 2d                	jmp    8048e6f <phase_3+0x83>
 8048e42:	b8 33 00 00 00       	mov    $0x33,%eax
 8048e47:	eb 26                	jmp    8048e6f <phase_3+0x83>
 8048e49:	b8 4e 02 00 00       	mov    $0x24e,%eax
 8048e4e:	eb 1f                	jmp    8048e6f <phase_3+0x83>
 8048e50:	b8 c4 01 00 00       	mov    $0x1c4,%eax
 8048e55:	eb 18                	jmp    8048e6f <phase_3+0x83>
 8048e57:	b8 f3 00 00 00       	mov    $0xf3,%eax
 8048e5c:	eb 11                	jmp    8048e6f <phase_3+0x83>
 8048e5e:	b8 4e 01 00 00       	mov    $0x14e,%eax
 8048e63:	eb 0a                	jmp    8048e6f <phase_3+0x83>
 8048e65:	e8 5e 02 00 00       	call   80490c8 <explode_bomb>
 8048e6a:	b8 00 00 00 00       	mov    $0x0,%eax
 8048e6f:	3b 45 f0             	cmp    -0x10(%ebp),%eax
 8048e72:	74 05                	je     8048e79 <phase_3+0x8d>
 8048e74:	e8 4f 02 00 00       	call   80490c8 <explode_bomb>
 8048e79:	c9                   	leave  
 8048e7a:	c3                   	ret    

08048e7b <phase_1>:
 8048e7b:	55                   	push   %ebp
 8048e7c:	89 e5                	mov    %esp,%ebp
 8048e7e:	83 ec 18             	sub    $0x18,%esp
 8048e81:	c7 44 24 04 90 a0 04 	movl   $0x804a090,0x4(%esp)
 8048e88:	08 
 8048e89:	8b 45 08             	mov    0x8(%ebp),%eax
 8048e8c:	89 04 24             	mov    %eax,(%esp)
 8048e8f:	e8 37 00 00 00       	call   8048ecb <strings_not_equal>
 8048e94:	85 c0                	test   %eax,%eax
 8048e96:	74 05                	je     8048e9d <phase_1+0x22>
 8048e98:	e8 2b 02 00 00       	call   80490c8 <explode_bomb>
 8048e9d:	c9                   	leave  
 8048e9e:	66 90                	xchg   %ax,%ax
 8048ea0:	c3                   	ret    
 8048ea1:	90                   	nop
 8048ea2:	90                   	nop
 8048ea3:	90                   	nop
 8048ea4:	90                   	nop
 8048ea5:	90                   	nop
 8048ea6:	90                   	nop
 8048ea7:	90                   	nop
 8048ea8:	90                   	nop
 8048ea9:	90                   	nop
 8048eaa:	90                   	nop
 8048eab:	90                   	nop
 8048eac:	90                   	nop
 8048ead:	90                   	nop
 8048eae:	90                   	nop
 8048eaf:	90                   	nop

08048eb0 <string_length>:
 8048eb0:	55                   	push   %ebp
 8048eb1:	89 e5                	mov    %esp,%ebp
 8048eb3:	8b 55 08             	mov    0x8(%ebp),%edx
 8048eb6:	b8 00 00 00 00       	mov    $0x0,%eax
 8048ebb:	80 3a 00             	cmpb   $0x0,(%edx)
 8048ebe:	74 09                	je     8048ec9 <string_length+0x19>
 8048ec0:	83 c0 01             	add    $0x1,%eax
 8048ec3:	80 3c 02 00          	cmpb   $0x0,(%edx,%eax,1)
 8048ec7:	75 f7                	jne    8048ec0 <string_length+0x10>
 8048ec9:	5d                   	pop    %ebp
 8048eca:	c3                   	ret    

08048ecb <strings_not_equal>:
 8048ecb:	55                   	push   %ebp
 8048ecc:	89 e5                	mov    %esp,%ebp
 8048ece:	57                   	push   %edi
 8048ecf:	56                   	push   %esi
 8048ed0:	53                   	push   %ebx
 8048ed1:	83 ec 04             	sub    $0x4,%esp
 8048ed4:	8b 5d 08             	mov    0x8(%ebp),%ebx
 8048ed7:	8b 75 0c             	mov    0xc(%ebp),%esi
 8048eda:	89 1c 24             	mov    %ebx,(%esp)
 8048edd:	e8 ce ff ff ff       	call   8048eb0 <string_length>
 8048ee2:	89 c7                	mov    %eax,%edi
 8048ee4:	89 34 24             	mov    %esi,(%esp)
 8048ee7:	e8 c4 ff ff ff       	call   8048eb0 <string_length>
 8048eec:	39 c7                	cmp    %eax,%edi
 8048eee:	75 29                	jne    8048f19 <strings_not_equal+0x4e>
 8048ef0:	0f b6 13             	movzbl (%ebx),%edx
 8048ef3:	84 d2                	test   %dl,%dl
 8048ef5:	74 29                	je     8048f20 <strings_not_equal+0x55>
 8048ef7:	b8 00 00 00 00       	mov    $0x0,%eax
 8048efc:	3a 16                	cmp    (%esi),%dl
 8048efe:	74 0e                	je     8048f0e <strings_not_equal+0x43>
 8048f00:	eb 17                	jmp    8048f19 <strings_not_equal+0x4e>
 8048f02:	0f b6 4c 06 01       	movzbl 0x1(%esi,%eax,1),%ecx
 8048f07:	83 c0 01             	add    $0x1,%eax
 8048f0a:	38 ca                	cmp    %cl,%dl
 8048f0c:	75 0b                	jne    8048f19 <strings_not_equal+0x4e>
 8048f0e:	0f b6 54 03 01       	movzbl 0x1(%ebx,%eax,1),%edx
 8048f13:	84 d2                	test   %dl,%dl
 8048f15:	75 eb                	jne    8048f02 <strings_not_equal+0x37>
 8048f17:	eb 07                	jmp    8048f20 <strings_not_equal+0x55>
 8048f19:	b8 01 00 00 00       	mov    $0x1,%eax
 8048f1e:	eb 05                	jmp    8048f25 <strings_not_equal+0x5a>
 8048f20:	b8 00 00 00 00       	mov    $0x0,%eax
 8048f25:	83 c4 04             	add    $0x4,%esp
 8048f28:	5b                   	pop    %ebx
 8048f29:	5e                   	pop    %esi
 8048f2a:	5f                   	pop    %edi
 8048f2b:	5d                   	pop    %ebp
 8048f2c:	c3                   	ret    

08048f2d <initialize_bomb_solve>:
 8048f2d:	55                   	push   %ebp
 8048f2e:	89 e5                	mov    %esp,%ebp
 8048f30:	5d                   	pop    %ebp
 8048f31:	c3                   	ret    

08048f32 <invalid_phase>:
 8048f32:	55                   	push   %ebp
 8048f33:	89 e5                	mov    %esp,%ebp
 8048f35:	83 ec 18             	sub    $0x18,%esp
 8048f38:	8b 45 08             	mov    0x8(%ebp),%eax
 8048f3b:	89 44 24 04          	mov    %eax,0x4(%esp)
 8048f3f:	c7 04 24 20 a1 04 08 	movl   $0x804a120,(%esp)
 8048f46:	e8 fd f8 ff ff       	call   8048848 <printf@plt>
 8048f4b:	c7 04 24 08 00 00 00 	movl   $0x8,(%esp)
 8048f52:	e8 71 f9 ff ff       	call   80488c8 <exit@plt>

08048f57 <send_msg>:
 8048f57:	55                   	push   %ebp
 8048f58:	89 e5                	mov    %esp,%ebp
 8048f5a:	57                   	push   %edi
 8048f5b:	53                   	push   %ebx
 8048f5c:	81 ec 20 40 00 00    	sub    $0x4020,%esp
 8048f62:	8b 15 cc b8 04 08    	mov    0x804b8cc,%edx
 8048f68:	8d 5c 92 fb          	lea    -0x5(%edx,%edx,4),%ebx
 8048f6c:	c1 e3 04             	shl    $0x4,%ebx
 8048f6f:	81 c3 e0 b8 04 08    	add    $0x804b8e0,%ebx
 8048f75:	89 df                	mov    %ebx,%edi
 8048f77:	b8 00 00 00 00       	mov    $0x0,%eax
 8048f7c:	b9 ff ff ff ff       	mov    $0xffffffff,%ecx
 8048f81:	f2 ae                	repnz scas %es:(%edi),%al
 8048f83:	f7 d1                	not    %ecx
 8048f85:	83 c1 63             	add    $0x63,%ecx
 8048f88:	81 f9 00 20 00 00    	cmp    $0x2000,%ecx
 8048f8e:	76 18                	jbe    8048fa8 <send_msg+0x51>
 8048f90:	c7 04 24 54 a3 04 08 	movl   $0x804a354,(%esp)
 8048f97:	e8 ac f8 ff ff       	call   8048848 <printf@plt>
 8048f9c:	c7 04 24 08 00 00 00 	movl   $0x8,(%esp)
 8048fa3:	e8 20 f9 ff ff       	call   80488c8 <exit@plt>
 8048fa8:	83 7d 08 00          	cmpl   $0x0,0x8(%ebp)
 8048fac:	b8 31 a1 04 08       	mov    $0x804a131,%eax
 8048fb1:	b9 3a a1 04 08       	mov    $0x804a13a,%ecx
 8048fb6:	0f 45 c1             	cmovne %ecx,%eax
 8048fb9:	89 5c 24 14          	mov    %ebx,0x14(%esp)
 8048fbd:	89 54 24 10          	mov    %edx,0x10(%esp)
 8048fc1:	89 44 24 0c          	mov    %eax,0xc(%esp)
 8048fc5:	a1 80 b1 04 08       	mov    0x804b180,%eax
 8048fca:	89 44 24 08          	mov    %eax,0x8(%esp)
 8048fce:	c7 44 24 04 42 a1 04 	movl   $0x804a142,0x4(%esp)
 8048fd5:	08 
 8048fd6:	8d 9d f8 df ff ff    	lea    -0x2008(%ebp),%ebx
 8048fdc:	89 1c 24             	mov    %ebx,(%esp)
 8048fdf:	e8 34 f7 ff ff       	call   8048718 <sprintf@plt>
 8048fe4:	8d 85 f8 bf ff ff    	lea    -0x4008(%ebp),%eax
 8048fea:	89 44 24 0c          	mov    %eax,0xc(%esp)
 8048fee:	c7 44 24 08 00 00 00 	movl   $0x0,0x8(%esp)
 8048ff5:	00 
 8048ff6:	89 5c 24 04          	mov    %ebx,0x4(%esp)
 8048ffa:	c7 04 24 a0 b1 04 08 	movl   $0x804b1a0,(%esp)
 8049001:	e8 a5 0d 00 00       	call   8049dab <driver_post>
 8049006:	85 c0                	test   %eax,%eax
 8049008:	79 1a                	jns    8049024 <send_msg+0xcd>
 804900a:	8d 85 f8 bf ff ff    	lea    -0x4008(%ebp),%eax
 8049010:	89 04 24             	mov    %eax,(%esp)
 8049013:	e8 90 f8 ff ff       	call   80488a8 <puts@plt>
 8049018:	c7 04 24 00 00 00 00 	movl   $0x0,(%esp)
 804901f:	e8 a4 f8 ff ff       	call   80488c8 <exit@plt>
 8049024:	81 c4 20 40 00 00    	add    $0x4020,%esp
 804902a:	5b                   	pop    %ebx
 804902b:	5f                   	pop    %edi
 804902c:	5d                   	pop    %ebp
 804902d:	c3                   	ret    

0804902e <phase_defused>:
 804902e:	55                   	push   %ebp
 804902f:	89 e5                	mov    %esp,%ebp
 8049031:	81 ec 88 00 00 00    	sub    $0x88,%esp
 8049037:	c7 04 24 01 00 00 00 	movl   $0x1,(%esp)
 804903e:	e8 14 ff ff ff       	call   8048f57 <send_msg>
 8049043:	83 3d cc b8 04 08 06 	cmpl   $0x6,0x804b8cc
 804904a:	75 7a                	jne    80490c6 <phase_defused+0x98>
 804904c:	8d 45 a8             	lea    -0x58(%ebp),%eax
 804904f:	89 44 24 10          	mov    %eax,0x10(%esp)
 8049053:	8d 45 a0             	lea    -0x60(%ebp),%eax
 8049056:	89 44 24 0c          	mov    %eax,0xc(%esp)
 804905a:	8d 45 a4             	lea    -0x5c(%ebp),%eax
 804905d:	89 44 24 08          	mov    %eax,0x8(%esp)
 8049061:	c7 44 24 04 4e a1 04 	movl   $0x804a14e,0x4(%esp)
 8049068:	08 
 8049069:	c7 04 24 d0 b9 04 08 	movl   $0x804b9d0,(%esp)
 8049070:	e8 e3 f6 ff ff       	call   8048758 <__isoc99_sscanf@plt>
 8049075:	83 f8 03             	cmp    $0x3,%eax
 8049078:	75 34                	jne    80490ae <phase_defused+0x80>
 804907a:	c7 44 24 04 57 a1 04 	movl   $0x804a157,0x4(%esp)
 8049081:	08 
 8049082:	8d 45 a8             	lea    -0x58(%ebp),%eax
 8049085:	89 04 24             	mov    %eax,(%esp)
 8049088:	e8 3e fe ff ff       	call   8048ecb <strings_not_equal>
 804908d:	85 c0                	test   %eax,%eax
 804908f:	75 1d                	jne    80490ae <phase_defused+0x80>
 8049091:	c7 04 24 78 a3 04 08 	movl   $0x804a378,(%esp)
 8049098:	e8 0b f8 ff ff       	call   80488a8 <puts@plt>
 804909d:	c7 04 24 a0 a3 04 08 	movl   $0x804a3a0,(%esp)
 80490a4:	e8 ff f7 ff ff       	call   80488a8 <puts@plt>
 80490a9:	e8 fd fa ff ff       	call   8048bab <secret_phase>
 80490ae:	c7 04 24 d8 a3 04 08 	movl   $0x804a3d8,(%esp)
 80490b5:	e8 ee f7 ff ff       	call   80488a8 <puts@plt>
 80490ba:	c7 04 24 04 a4 04 08 	movl   $0x804a404,(%esp)
 80490c1:	e8 e2 f7 ff ff       	call   80488a8 <puts@plt>
 80490c6:	c9                   	leave  
 80490c7:	c3                   	ret    

080490c8 <explode_bomb>:
 80490c8:	55                   	push   %ebp
 80490c9:	89 e5                	mov    %esp,%ebp
 80490cb:	83 ec 18             	sub    $0x18,%esp
 80490ce:	c7 04 24 5e a1 04 08 	movl   $0x804a15e,(%esp)
 80490d5:	e8 ce f7 ff ff       	call   80488a8 <puts@plt>
 80490da:	c7 04 24 67 a1 04 08 	movl   $0x804a167,(%esp)
 80490e1:	e8 c2 f7 ff ff       	call   80488a8 <puts@plt>
 80490e6:	c7 04 24 00 00 00 00 	movl   $0x0,(%esp)
 80490ed:	e8 65 fe ff ff       	call   8048f57 <send_msg>
 80490f2:	c7 04 24 48 a4 04 08 	movl   $0x804a448,(%esp)
 80490f9:	e8 aa f7 ff ff       	call   80488a8 <puts@plt>
 80490fe:	c7 04 24 08 00 00 00 	movl   $0x8,(%esp)
 8049105:	e8 be f7 ff ff       	call   80488c8 <exit@plt>

0804910a <read_six_numbers>:
 804910a:	55                   	push   %ebp
 804910b:	89 e5                	mov    %esp,%ebp
 804910d:	83 ec 28             	sub    $0x28,%esp
 8049110:	8b 45 0c             	mov    0xc(%ebp),%eax
 8049113:	8d 50 14             	lea    0x14(%eax),%edx
 8049116:	89 54 24 1c          	mov    %edx,0x1c(%esp)
 804911a:	8d 50 10             	lea    0x10(%eax),%edx
 804911d:	89 54 24 18          	mov    %edx,0x18(%esp)
 8049121:	8d 50 0c             	lea    0xc(%eax),%edx
 8049124:	89 54 24 14          	mov    %edx,0x14(%esp)
 8049128:	8d 50 08             	lea    0x8(%eax),%edx
 804912b:	89 54 24 10          	mov    %edx,0x10(%esp)
 804912f:	8d 50 04             	lea    0x4(%eax),%edx
 8049132:	89 54 24 0c          	mov    %edx,0xc(%esp)
 8049136:	89 44 24 08          	mov    %eax,0x8(%esp)
 804913a:	c7 44 24 04 7e a1 04 	movl   $0x804a17e,0x4(%esp)
 8049141:	08 
 8049142:	8b 45 08             	mov    0x8(%ebp),%eax
 8049145:	89 04 24             	mov    %eax,(%esp)
 8049148:	e8 0b f6 ff ff       	call   8048758 <__isoc99_sscanf@plt>
 804914d:	83 f8 05             	cmp    $0x5,%eax
 8049150:	7f 05                	jg     8049157 <read_six_numbers+0x4d>
 8049152:	e8 71 ff ff ff       	call   80490c8 <explode_bomb>
 8049157:	c9                   	leave  
 8049158:	c3                   	ret    

08049159 <blank_line>:
 8049159:	55                   	push   %ebp
 804915a:	89 e5                	mov    %esp,%ebp
 804915c:	56                   	push   %esi
 804915d:	53                   	push   %ebx
 804915e:	8b 75 08             	mov    0x8(%ebp),%esi
 8049161:	eb 1b                	jmp    804917e <blank_line+0x25>
 8049163:	e8 80 f6 ff ff       	call   80487e8 <__ctype_b_loc@plt>
 8049168:	0f be db             	movsbl %bl,%ebx
 804916b:	8b 00                	mov    (%eax),%eax
 804916d:	f6 44 58 01 20       	testb  $0x20,0x1(%eax,%ebx,2)
 8049172:	75 07                	jne    804917b <blank_line+0x22>
 8049174:	b8 00 00 00 00       	mov    $0x0,%eax
 8049179:	eb 0f                	jmp    804918a <blank_line+0x31>
 804917b:	83 c6 01             	add    $0x1,%esi
 804917e:	0f b6 1e             	movzbl (%esi),%ebx
 8049181:	84 db                	test   %bl,%bl
 8049183:	75 de                	jne    8049163 <blank_line+0xa>
 8049185:	b8 01 00 00 00       	mov    $0x1,%eax
 804918a:	5b                   	pop    %ebx
 804918b:	5e                   	pop    %esi
 804918c:	5d                   	pop    %ebp
 804918d:	c3                   	ret    

0804918e <skip>:
 804918e:	55                   	push   %ebp
 804918f:	89 e5                	mov    %esp,%ebp
 8049191:	53                   	push   %ebx
 8049192:	83 ec 14             	sub    $0x14,%esp
 8049195:	a1 d0 b8 04 08       	mov    0x804b8d0,%eax
 804919a:	89 44 24 08          	mov    %eax,0x8(%esp)
 804919e:	c7 44 24 04 50 00 00 	movl   $0x50,0x4(%esp)
 80491a5:	00 
 80491a6:	a1 cc b8 04 08       	mov    0x804b8cc,%eax
 80491ab:	8d 04 80             	lea    (%eax,%eax,4),%eax
 80491ae:	c1 e0 04             	shl    $0x4,%eax
 80491b1:	05 e0 b8 04 08       	add    $0x804b8e0,%eax
 80491b6:	89 04 24             	mov    %eax,(%esp)
 80491b9:	e8 ca f5 ff ff       	call   8048788 <fgets@plt>
 80491be:	89 c3                	mov    %eax,%ebx
 80491c0:	85 c0                	test   %eax,%eax
 80491c2:	74 0c                	je     80491d0 <skip+0x42>
 80491c4:	89 04 24             	mov    %eax,(%esp)
 80491c7:	e8 8d ff ff ff       	call   8049159 <blank_line>
 80491cc:	85 c0                	test   %eax,%eax
 80491ce:	75 c5                	jne    8049195 <skip+0x7>
 80491d0:	89 d8                	mov    %ebx,%eax
 80491d2:	83 c4 14             	add    $0x14,%esp
 80491d5:	5b                   	pop    %ebx
 80491d6:	5d                   	pop    %ebp
 80491d7:	c3                   	ret    

080491d8 <read_line>:
 80491d8:	55                   	push   %ebp
 80491d9:	89 e5                	mov    %esp,%ebp
 80491db:	83 ec 28             	sub    $0x28,%esp
 80491de:	89 5d f4             	mov    %ebx,-0xc(%ebp)
 80491e1:	89 75 f8             	mov    %esi,-0x8(%ebp)
 80491e4:	89 7d fc             	mov    %edi,-0x4(%ebp)
 80491e7:	e8 a2 ff ff ff       	call   804918e <skip>
 80491ec:	85 c0                	test   %eax,%eax
 80491ee:	75 6c                	jne    804925c <read_line+0x84>
 80491f0:	a1 d0 b8 04 08       	mov    0x804b8d0,%eax
 80491f5:	3b 05 a4 b8 04 08    	cmp    0x804b8a4,%eax
 80491fb:	75 18                	jne    8049215 <read_line+0x3d>
 80491fd:	c7 04 24 90 a1 04 08 	movl   $0x804a190,(%esp)
 8049204:	e8 9f f6 ff ff       	call   80488a8 <puts@plt>
 8049209:	c7 04 24 08 00 00 00 	movl   $0x8,(%esp)
 8049210:	e8 b3 f6 ff ff       	call   80488c8 <exit@plt>
 8049215:	c7 04 24 ae a1 04 08 	movl   $0x804a1ae,(%esp)
 804921c:	e8 47 f5 ff ff       	call   8048768 <getenv@plt>
 8049221:	85 c0                	test   %eax,%eax
 8049223:	74 0c                	je     8049231 <read_line+0x59>
 8049225:	c7 04 24 00 00 00 00 	movl   $0x0,(%esp)
 804922c:	e8 97 f6 ff ff       	call   80488c8 <exit@plt>
 8049231:	a1 a4 b8 04 08       	mov    0x804b8a4,%eax
 8049236:	a3 d0 b8 04 08       	mov    %eax,0x804b8d0
 804923b:	e8 4e ff ff ff       	call   804918e <skip>
 8049240:	85 c0                	test   %eax,%eax
 8049242:	75 18                	jne    804925c <read_line+0x84>
 8049244:	c7 04 24 90 a1 04 08 	movl   $0x804a190,(%esp)
 804924b:	e8 58 f6 ff ff       	call   80488a8 <puts@plt>
 8049250:	c7 04 24 00 00 00 00 	movl   $0x0,(%esp)
 8049257:	e8 6c f6 ff ff       	call   80488c8 <exit@plt>
 804925c:	be e0 b8 04 08       	mov    $0x804b8e0,%esi
 8049261:	a1 cc b8 04 08       	mov    0x804b8cc,%eax
 8049266:	8d 04 80             	lea    (%eax,%eax,4),%eax
 8049269:	c1 e0 04             	shl    $0x4,%eax
 804926c:	8d b8 e0 b8 04 08    	lea    0x804b8e0(%eax),%edi
 8049272:	b8 00 00 00 00       	mov    $0x0,%eax
 8049277:	b9 ff ff ff ff       	mov    $0xffffffff,%ecx
 804927c:	f2 ae                	repnz scas %es:(%edi),%al
 804927e:	f7 d1                	not    %ecx
 8049280:	8d 59 ff             	lea    -0x1(%ecx),%ebx
 8049283:	83 fb 4e             	cmp    $0x4e,%ebx
 8049286:	7e 43                	jle    80492cb <read_line+0xf3>
 8049288:	c7 04 24 b9 a1 04 08 	movl   $0x804a1b9,(%esp)
 804928f:	e8 14 f6 ff ff       	call   80488a8 <puts@plt>
 8049294:	a1 cc b8 04 08       	mov    0x804b8cc,%eax
 8049299:	8d 50 01             	lea    0x1(%eax),%edx
 804929c:	89 15 cc b8 04 08    	mov    %edx,0x804b8cc
 80492a2:	8d 04 80             	lea    (%eax,%eax,4),%eax
 80492a5:	c1 e0 04             	shl    $0x4,%eax
 80492a8:	8d 04 06             	lea    (%esi,%eax,1),%eax
 80492ab:	c7 00 2a 2a 2a 74    	movl   $0x742a2a2a,(%eax)
 80492b1:	c7 40 04 72 75 6e 63 	movl   $0x636e7572,0x4(%eax)
 80492b8:	c7 40 08 61 74 65 64 	movl   $0x64657461,0x8(%eax)
 80492bf:	c7 40 0c 2a 2a 2a 00 	movl   $0x2a2a2a,0xc(%eax)
 80492c6:	e8 fd fd ff ff       	call   80490c8 <explode_bomb>
 80492cb:	a1 cc b8 04 08       	mov    0x804b8cc,%eax
 80492d0:	8d 14 85 00 00 00 00 	lea    0x0(,%eax,4),%edx
 80492d7:	8d 0c 02             	lea    (%edx,%eax,1),%ecx
 80492da:	c1 e1 04             	shl    $0x4,%ecx
 80492dd:	c6 84 0b df b8 04 08 	movb   $0x0,0x804b8df(%ebx,%ecx,1)
 80492e4:	00 
 80492e5:	8d 48 01             	lea    0x1(%eax),%ecx
 80492e8:	89 0d cc b8 04 08    	mov    %ecx,0x804b8cc
 80492ee:	8d 04 02             	lea    (%edx,%eax,1),%eax
 80492f1:	c1 e0 04             	shl    $0x4,%eax
 80492f4:	8d 04 06             	lea    (%esi,%eax,1),%eax
 80492f7:	8b 5d f4             	mov    -0xc(%ebp),%ebx
 80492fa:	8b 75 f8             	mov    -0x8(%ebp),%esi
 80492fd:	8b 7d fc             	mov    -0x4(%ebp),%edi
 8049300:	89 ec                	mov    %ebp,%esp
 8049302:	5d                   	pop    %ebp
 8049303:	c3                   	ret    

08049304 <initialize_bomb>:
 8049304:	55                   	push   %ebp
 8049305:	89 e5                	mov    %esp,%ebp
 8049307:	57                   	push   %edi
 8049308:	56                   	push   %esi
 8049309:	53                   	push   %ebx
 804930a:	81 ec 5c 20 00 00    	sub    $0x205c,%esp
 8049310:	c7 44 24 04 de 93 04 	movl   $0x80493de,0x4(%esp)
 8049317:	08 
 8049318:	c7 04 24 02 00 00 00 	movl   $0x2,(%esp)
 804931f:	e8 14 f4 ff ff       	call   8048738 <signal@plt>
 8049324:	c7 44 24 04 40 00 00 	movl   $0x40,0x4(%esp)
 804932b:	00 
 804932c:	8d 45 a8             	lea    -0x58(%ebp),%eax
 804932f:	89 04 24             	mov    %eax,(%esp)
 8049332:	e8 51 f5 ff ff       	call   8048888 <gethostname@plt>
 8049337:	85 c0                	test   %eax,%eax
 8049339:	75 18                	jne    8049353 <initialize_bomb+0x4f>
 804933b:	a1 a0 b6 04 08       	mov    0x804b6a0,%eax
 8049340:	bb 00 00 00 00       	mov    $0x0,%ebx
 8049345:	8d 75 a8             	lea    -0x58(%ebp),%esi
 8049348:	bf a0 b6 04 08       	mov    $0x804b6a0,%edi
 804934d:	85 c0                	test   %eax,%eax
 804934f:	75 1a                	jne    804936b <initialize_bomb+0x67>
 8049351:	eb 68                	jmp    80493bb <initialize_bomb+0xb7>
 8049353:	c7 04 24 6c a4 04 08 	movl   $0x804a46c,(%esp)
 804935a:	e8 49 f5 ff ff       	call   80488a8 <puts@plt>
 804935f:	c7 04 24 08 00 00 00 	movl   $0x8,(%esp)
 8049366:	e8 5d f5 ff ff       	call   80488c8 <exit@plt>
 804936b:	89 74 24 04          	mov    %esi,0x4(%esp)
 804936f:	89 04 24             	mov    %eax,(%esp)
 8049372:	e8 e1 f4 ff ff       	call   8048858 <strcasecmp@plt>
 8049377:	85 c0                	test   %eax,%eax
 8049379:	74 0c                	je     8049387 <initialize_bomb+0x83>
 804937b:	83 c3 01             	add    $0x1,%ebx
 804937e:	8b 04 9f             	mov    (%edi,%ebx,4),%eax
 8049381:	85 c0                	test   %eax,%eax
 8049383:	75 e6                	jne    804936b <initialize_bomb+0x67>
 8049385:	eb 34                	jmp    80493bb <initialize_bomb+0xb7>
 8049387:	8d 85 a8 df ff ff    	lea    -0x2058(%ebp),%eax
 804938d:	89 04 24             	mov    %eax,(%esp)
 8049390:	e8 ab 00 00 00       	call   8049440 <init_driver>
 8049395:	85 c0                	test   %eax,%eax
 8049397:	79 3a                	jns    80493d3 <initialize_bomb+0xcf>
 8049399:	8d 85 a8 df ff ff    	lea    -0x2058(%ebp),%eax
 804939f:	89 44 24 04          	mov    %eax,0x4(%esp)
 80493a3:	c7 04 24 d4 a1 04 08 	movl   $0x804a1d4,(%esp)
 80493aa:	e8 99 f4 ff ff       	call   8048848 <printf@plt>
 80493af:	c7 04 24 08 00 00 00 	movl   $0x8,(%esp)
 80493b6:	e8 0d f5 ff ff       	call   80488c8 <exit@plt>
 80493bb:	c7 04 24 a4 a4 04 08 	movl   $0x804a4a4,(%esp)
 80493c2:	e8 e1 f4 ff ff       	call   80488a8 <puts@plt>
 80493c7:	c7 04 24 08 00 00 00 	movl   $0x8,(%esp)
 80493ce:	e8 f5 f4 ff ff       	call   80488c8 <exit@plt>
 80493d3:	81 c4 5c 20 00 00    	add    $0x205c,%esp
 80493d9:	5b                   	pop    %ebx
 80493da:	5e                   	pop    %esi
 80493db:	5f                   	pop    %edi
 80493dc:	5d                   	pop    %ebp
 80493dd:	c3                   	ret    

080493de <sig_handler>:
 80493de:	55                   	push   %ebp
 80493df:	89 e5                	mov    %esp,%ebp
 80493e1:	83 ec 18             	sub    $0x18,%esp
 80493e4:	c7 04 24 dc a4 04 08 	movl   $0x804a4dc,(%esp)
 80493eb:	e8 b8 f4 ff ff       	call   80488a8 <puts@plt>
 80493f0:	c7 04 24 03 00 00 00 	movl   $0x3,(%esp)
 80493f7:	e8 9c f4 ff ff       	call   8048898 <sleep@plt>
 80493fc:	c7 04 24 ee a1 04 08 	movl   $0x804a1ee,(%esp)
 8049403:	e8 40 f4 ff ff       	call   8048848 <printf@plt>
 8049408:	a1 c0 b8 04 08       	mov    0x804b8c0,%eax
 804940d:	89 04 24             	mov    %eax,(%esp)
 8049410:	e8 b3 f3 ff ff       	call   80487c8 <fflush@plt>
 8049415:	c7 04 24 01 00 00 00 	movl   $0x1,(%esp)
 804941c:	e8 77 f4 ff ff       	call   8048898 <sleep@plt>
 8049421:	c7 04 24 f6 a1 04 08 	movl   $0x804a1f6,(%esp)
 8049428:	e8 7b f4 ff ff       	call   80488a8 <puts@plt>
 804942d:	c7 04 24 10 00 00 00 	movl   $0x10,(%esp)
 8049434:	e8 8f f4 ff ff       	call   80488c8 <exit@plt>
 8049439:	90                   	nop
 804943a:	90                   	nop
 804943b:	90                   	nop
 804943c:	90                   	nop
 804943d:	90                   	nop
 804943e:	90                   	nop
 804943f:	90                   	nop

08049440 <init_driver>:
 8049440:	55                   	push   %ebp
 8049441:	89 e5                	mov    %esp,%ebp
 8049443:	57                   	push   %edi
 8049444:	56                   	push   %esi
 8049445:	53                   	push   %ebx
 8049446:	83 ec 2c             	sub    $0x2c,%esp
 8049449:	8b 7d 08             	mov    0x8(%ebp),%edi
 804944c:	c7 44 24 04 01 00 00 	movl   $0x1,0x4(%esp)
 8049453:	00 
 8049454:	c7 04 24 0d 00 00 00 	movl   $0xd,(%esp)
 804945b:	e8 d8 f2 ff ff       	call   8048738 <signal@plt>
 8049460:	c7 44 24 04 01 00 00 	movl   $0x1,0x4(%esp)
 8049467:	00 
 8049468:	c7 04 24 1d 00 00 00 	movl   $0x1d,(%esp)
 804946f:	e8 c4 f2 ff ff       	call   8048738 <signal@plt>
 8049474:	c7 44 24 04 01 00 00 	movl   $0x1,0x4(%esp)
 804947b:	00 
 804947c:	c7 04 24 1d 00 00 00 	movl   $0x1d,(%esp)
 8049483:	e8 b0 f2 ff ff       	call   8048738 <signal@plt>
 8049488:	c7 44 24 08 00 00 00 	movl   $0x0,0x8(%esp)
 804948f:	00 
 8049490:	c7 44 24 04 01 00 00 	movl   $0x1,0x4(%esp)
 8049497:	00 
 8049498:	c7 04 24 02 00 00 00 	movl   $0x2,(%esp)
 804949f:	e8 34 f3 ff ff       	call   80487d8 <socket@plt>
 80494a4:	89 c6                	mov    %eax,%esi
 80494a6:	85 c0                	test   %eax,%eax
 80494a8:	79 4e                	jns    80494f8 <init_driver+0xb8>
 80494aa:	c7 07 45 72 72 6f    	movl   $0x6f727245,(%edi)
 80494b0:	c7 47 04 72 3a 20 43 	movl   $0x43203a72,0x4(%edi)
 80494b7:	c7 47 08 6c 69 65 6e 	movl   $0x6e65696c,0x8(%edi)
 80494be:	c7 47 0c 74 20 75 6e 	movl   $0x6e752074,0xc(%edi)
 80494c5:	c7 47 10 61 62 6c 65 	movl   $0x656c6261,0x10(%edi)
 80494cc:	c7 47 14 20 74 6f 20 	movl   $0x206f7420,0x14(%edi)
 80494d3:	c7 47 18 63 72 65 61 	movl   $0x61657263,0x18(%edi)
 80494da:	c7 47 1c 74 65 20 73 	movl   $0x73206574,0x1c(%edi)
 80494e1:	c7 47 20 6f 63 6b 65 	movl   $0x656b636f,0x20(%edi)
 80494e8:	66 c7 47 24 74 00    	movw   $0x74,0x24(%edi)
 80494ee:	b8 ff ff ff ff       	mov    $0xffffffff,%eax
 80494f3:	e9 12 01 00 00       	jmp    804960a <init_driver+0x1ca>
 80494f8:	c7 04 24 fe a1 04 08 	movl   $0x804a1fe,(%esp)
 80494ff:	e8 b4 f3 ff ff       	call   80488b8 <gethostbyname@plt>
 8049504:	85 c0                	test   %eax,%eax
 8049506:	75 68                	jne    8049570 <init_driver+0x130>
 8049508:	c7 07 45 72 72 6f    	movl   $0x6f727245,(%edi)
 804950e:	c7 47 04 72 3a 20 44 	movl   $0x44203a72,0x4(%edi)
 8049515:	c7 47 08 4e 53 20 69 	movl   $0x6920534e,0x8(%edi)
 804951c:	c7 47 0c 73 20 75 6e 	movl   $0x6e752073,0xc(%edi)
 8049523:	c7 47 10 61 62 6c 65 	movl   $0x656c6261,0x10(%edi)
 804952a:	c7 47 14 20 74 6f 20 	movl   $0x206f7420,0x14(%edi)
 8049531:	c7 47 18 72 65 73 6f 	movl   $0x6f736572,0x18(%edi)
 8049538:	c7 47 1c 6c 76 65 20 	movl   $0x2065766c,0x1c(%edi)
 804953f:	c7 47 20 73 65 72 76 	movl   $0x76726573,0x20(%edi)
 8049546:	c7 47 24 65 72 20 61 	movl   $0x61207265,0x24(%edi)
 804954d:	c7 47 28 64 64 72 65 	movl   $0x65726464,0x28(%edi)
 8049554:	66 c7 47 2c 73 73    	movw   $0x7373,0x2c(%edi)
 804955a:	c6 47 2e 00          	movb   $0x0,0x2e(%edi)
 804955e:	89 34 24             	mov    %esi,(%esp)
 8049561:	e8 02 f3 ff ff       	call   8048868 <close@plt>
 8049566:	b8 ff ff ff ff       	mov    $0xffffffff,%eax
 804956b:	e9 9a 00 00 00       	jmp    804960a <init_driver+0x1ca>
 8049570:	8d 5d d8             	lea    -0x28(%ebp),%ebx
 8049573:	c7 03 00 00 00 00    	movl   $0x0,(%ebx)
 8049579:	c7 43 04 00 00 00 00 	movl   $0x0,0x4(%ebx)
 8049580:	c7 43 08 00 00 00 00 	movl   $0x0,0x8(%ebx)
 8049587:	c7 43 0c 00 00 00 00 	movl   $0x0,0xc(%ebx)
 804958e:	66 c7 45 d8 02 00    	movw   $0x2,-0x28(%ebp)
 8049594:	8b 50 0c             	mov    0xc(%eax),%edx
 8049597:	89 54 24 08          	mov    %edx,0x8(%esp)
 804959b:	8d 55 dc             	lea    -0x24(%ebp),%edx
 804959e:	89 54 24 04          	mov    %edx,0x4(%esp)
 80495a2:	8b 40 10             	mov    0x10(%eax),%eax
 80495a5:	8b 00                	mov    (%eax),%eax
 80495a7:	89 04 24             	mov    %eax,(%esp)
 80495aa:	e8 49 f2 ff ff       	call   80487f8 <bcopy@plt>
 80495af:	66 c7 45 da 3b 6e    	movw   $0x6e3b,-0x26(%ebp)
 80495b5:	c7 44 24 08 10 00 00 	movl   $0x10,0x8(%esp)
 80495bc:	00 
 80495bd:	89 5c 24 04          	mov    %ebx,0x4(%esp)
 80495c1:	89 34 24             	mov    %esi,(%esp)
 80495c4:	e8 5f f1 ff ff       	call   8048728 <connect@plt>
 80495c9:	85 c0                	test   %eax,%eax
 80495cb:	79 27                	jns    80495f4 <init_driver+0x1b4>
 80495cd:	c7 44 24 08 fe a1 04 	movl   $0x804a1fe,0x8(%esp)
 80495d4:	08 
 80495d5:	c7 44 24 04 58 a5 04 	movl   $0x804a558,0x4(%esp)
 80495dc:	08 
 80495dd:	89 3c 24             	mov    %edi,(%esp)
 80495e0:	e8 33 f1 ff ff       	call   8048718 <sprintf@plt>
 80495e5:	89 34 24             	mov    %esi,(%esp)
 80495e8:	e8 7b f2 ff ff       	call   8048868 <close@plt>
 80495ed:	b8 ff ff ff ff       	mov    $0xffffffff,%eax
 80495f2:	eb 16                	jmp    804960a <init_driver+0x1ca>
 80495f4:	89 34 24             	mov    %esi,(%esp)
 80495f7:	e8 6c f2 ff ff       	call   8048868 <close@plt>
 80495fc:	66 c7 07 4f 4b       	movw   $0x4b4f,(%edi)
 8049601:	c6 47 02 00          	movb   $0x0,0x2(%edi)
 8049605:	b8 00 00 00 00       	mov    $0x0,%eax
 804960a:	83 c4 2c             	add    $0x2c,%esp
 804960d:	5b                   	pop    %ebx
 804960e:	5e                   	pop    %esi
 804960f:	5f                   	pop    %edi
 8049610:	5d                   	pop    %ebp
 8049611:	c3                   	ret    

08049612 <init_timeout>:
 8049612:	55                   	push   %ebp
 8049613:	89 e5                	mov    %esp,%ebp
 8049615:	53                   	push   %ebx
 8049616:	83 ec 14             	sub    $0x14,%esp
 8049619:	8b 5d 08             	mov    0x8(%ebp),%ebx
 804961c:	85 db                	test   %ebx,%ebx
 804961e:	74 26                	je     8049646 <init_timeout+0x34>
 8049620:	c7 44 24 04 30 9e 04 	movl   $0x8049e30,0x4(%esp)
 8049627:	08 
 8049628:	c7 04 24 0e 00 00 00 	movl   $0xe,(%esp)
 804962f:	e8 04 f1 ff ff       	call   8048738 <signal@plt>
 8049634:	85 db                	test   %ebx,%ebx
 8049636:	b8 00 00 00 00       	mov    $0x0,%eax
 804963b:	0f 48 d8             	cmovs  %eax,%ebx
 804963e:	89 1c 24             	mov    %ebx,(%esp)
 8049641:	e8 e2 f1 ff ff       	call   8048828 <alarm@plt>
 8049646:	83 c4 14             	add    $0x14,%esp
 8049649:	5b                   	pop    %ebx
 804964a:	5d                   	pop    %ebp
 804964b:	c3                   	ret    

0804964c <rio_readlineb>:
 804964c:	55                   	push   %ebp
 804964d:	89 e5                	mov    %esp,%ebp
 804964f:	57                   	push   %edi
 8049650:	56                   	push   %esi
 8049651:	53                   	push   %ebx
 8049652:	83 ec 3c             	sub    $0x3c,%esp
 8049655:	89 c3                	mov    %eax,%ebx
 8049657:	89 4d c8             	mov    %ecx,-0x38(%ebp)
 804965a:	89 55 d0             	mov    %edx,-0x30(%ebp)
 804965d:	83 f9 01             	cmp    $0x1,%ecx
 8049660:	0f 86 be 00 00 00    	jbe    8049724 <rio_readlineb+0xd8>
 8049666:	8d 78 0c             	lea    0xc(%eax),%edi
 8049669:	89 7d d4             	mov    %edi,-0x2c(%ebp)
 804966c:	c7 45 cc 01 00 00 00 	movl   $0x1,-0x34(%ebp)
 8049673:	eb 3c                	jmp    80496b1 <rio_readlineb+0x65>
 8049675:	c7 44 24 08 00 20 00 	movl   $0x2000,0x8(%esp)
 804967c:	00 
 804967d:	89 7c 24 04          	mov    %edi,0x4(%esp)
 8049681:	8b 03                	mov    (%ebx),%eax
 8049683:	89 04 24             	mov    %eax,(%esp)
 8049686:	e8 1d f1 ff ff       	call   80487a8 <read@plt>
 804968b:	89 43 04             	mov    %eax,0x4(%ebx)
 804968e:	85 c0                	test   %eax,%eax
 8049690:	79 11                	jns    80496a3 <rio_readlineb+0x57>
 8049692:	e8 71 f0 ff ff       	call   8048708 <__errno_location@plt>
 8049697:	83 38 04             	cmpl   $0x4,(%eax)
 804969a:	74 15                	je     80496b1 <rio_readlineb+0x65>
 804969c:	be ff ff ff ff       	mov    $0xffffffff,%esi
 80496a1:	eb 55                	jmp    80496f8 <rio_readlineb+0xac>
 80496a3:	85 c0                	test   %eax,%eax
 80496a5:	0f 84 91 00 00 00    	je     804973c <rio_readlineb+0xf0>
 80496ab:	8b 45 d4             	mov    -0x2c(%ebp),%eax
 80496ae:	89 43 08             	mov    %eax,0x8(%ebx)
 80496b1:	8b 73 04             	mov    0x4(%ebx),%esi
 80496b4:	85 f6                	test   %esi,%esi
 80496b6:	7e bd                	jle    8049675 <rio_readlineb+0x29>
 80496b8:	85 f6                	test   %esi,%esi
 80496ba:	0f 85 83 00 00 00    	jne    8049743 <rio_readlineb+0xf7>
 80496c0:	8b 43 08             	mov    0x8(%ebx),%eax
 80496c3:	89 74 24 08          	mov    %esi,0x8(%esp)
 80496c7:	89 44 24 04          	mov    %eax,0x4(%esp)
 80496cb:	8d 55 e7             	lea    -0x19(%ebp),%edx
 80496ce:	89 14 24             	mov    %edx,(%esp)
 80496d1:	e8 32 f1 ff ff       	call   8048808 <memcpy@plt>
 80496d6:	01 73 08             	add    %esi,0x8(%ebx)
 80496d9:	29 73 04             	sub    %esi,0x4(%ebx)
 80496dc:	83 fe 01             	cmp    $0x1,%esi
 80496df:	75 17                	jne    80496f8 <rio_readlineb+0xac>
 80496e1:	0f b6 45 e7          	movzbl -0x19(%ebp),%eax
 80496e5:	8b 55 d0             	mov    -0x30(%ebp),%edx
 80496e8:	88 02                	mov    %al,(%edx)
 80496ea:	83 c2 01             	add    $0x1,%edx
 80496ed:	89 55 d0             	mov    %edx,-0x30(%ebp)
 80496f0:	80 7d e7 0a          	cmpb   $0xa,-0x19(%ebp)
 80496f4:	75 20                	jne    8049716 <rio_readlineb+0xca>
 80496f6:	eb 33                	jmp    804972b <rio_readlineb+0xdf>
 80496f8:	8b 45 cc             	mov    -0x34(%ebp),%eax
 80496fb:	85 f6                	test   %esi,%esi
 80496fd:	74 09                	je     8049708 <rio_readlineb+0xbc>
 80496ff:	c7 45 cc ff ff ff ff 	movl   $0xffffffff,-0x34(%ebp)
 8049706:	eb 29                	jmp    8049731 <rio_readlineb+0xe5>
 8049708:	83 f8 01             	cmp    $0x1,%eax
 804970b:	75 1e                	jne    804972b <rio_readlineb+0xdf>
 804970d:	c7 45 cc 00 00 00 00 	movl   $0x0,-0x34(%ebp)
 8049714:	eb 1b                	jmp    8049731 <rio_readlineb+0xe5>
 8049716:	83 45 cc 01          	addl   $0x1,-0x34(%ebp)
 804971a:	8b 45 cc             	mov    -0x34(%ebp),%eax
 804971d:	39 45 c8             	cmp    %eax,-0x38(%ebp)
 8049720:	77 8f                	ja     80496b1 <rio_readlineb+0x65>
 8049722:	eb 07                	jmp    804972b <rio_readlineb+0xdf>
 8049724:	c7 45 cc 01 00 00 00 	movl   $0x1,-0x34(%ebp)
 804972b:	8b 55 d0             	mov    -0x30(%ebp),%edx
 804972e:	c6 02 00             	movb   $0x0,(%edx)
 8049731:	8b 45 cc             	mov    -0x34(%ebp),%eax
 8049734:	83 c4 3c             	add    $0x3c,%esp
 8049737:	5b                   	pop    %ebx
 8049738:	5e                   	pop    %esi
 8049739:	5f                   	pop    %edi
 804973a:	5d                   	pop    %ebp
 804973b:	c3                   	ret    
 804973c:	be 00 00 00 00       	mov    $0x0,%esi
 8049741:	eb b5                	jmp    80496f8 <rio_readlineb+0xac>
 8049743:	8b 43 08             	mov    0x8(%ebx),%eax
 8049746:	0f b6 00             	movzbl (%eax),%eax
 8049749:	88 45 e7             	mov    %al,-0x19(%ebp)
 804974c:	83 43 08 01          	addl   $0x1,0x8(%ebx)
 8049750:	83 6b 04 01          	subl   $0x1,0x4(%ebx)
 8049754:	eb 8b                	jmp    80496e1 <rio_readlineb+0x95>

08049756 <submitr>:
 8049756:	55                   	push   %ebp
 8049757:	89 e5                	mov    %esp,%ebp
 8049759:	57                   	push   %edi
 804975a:	56                   	push   %esi
 804975b:	53                   	push   %ebx
 804975c:	81 ec 6c a0 00 00    	sub    $0xa06c,%esp
 8049762:	c7 85 c8 7f ff ff 00 	movl   $0x0,-0x8038(%ebp)
 8049769:	00 00 00 
 804976c:	c7 44 24 08 00 00 00 	movl   $0x0,0x8(%esp)
 8049773:	00 
 8049774:	c7 44 24 04 01 00 00 	movl   $0x1,0x4(%esp)
 804977b:	00 
 804977c:	c7 04 24 02 00 00 00 	movl   $0x2,(%esp)
 8049783:	e8 50 f0 ff ff       	call   80487d8 <socket@plt>
 8049788:	89 85 b0 5f ff ff    	mov    %eax,-0xa050(%ebp)
 804978e:	85 c0                	test   %eax,%eax
 8049790:	79 1b                	jns    80497ad <submitr+0x57>
 8049792:	b8 80 a5 04 08       	mov    $0x804a580,%eax
 8049797:	b9 26 00 00 00       	mov    $0x26,%ecx
 804979c:	8b 7d 20             	mov    0x20(%ebp),%edi
 804979f:	89 c6                	mov    %eax,%esi
 80497a1:	f3 a4                	rep movsb %ds:(%esi),%es:(%edi)
 80497a3:	b8 ff ff ff ff       	mov    $0xffffffff,%eax
 80497a8:	e9 8c 05 00 00       	jmp    8049d39 <submitr+0x5e3>
 80497ad:	8b 45 08             	mov    0x8(%ebp),%eax
 80497b0:	89 04 24             	mov    %eax,(%esp)
 80497b3:	e8 00 f1 ff ff       	call   80488b8 <gethostbyname@plt>
 80497b8:	85 c0                	test   %eax,%eax
 80497ba:	75 29                	jne    80497e5 <submitr+0x8f>
 80497bc:	b8 a8 a5 04 08       	mov    $0x804a5a8,%eax
 80497c1:	b9 2f 00 00 00       	mov    $0x2f,%ecx
 80497c6:	8b 7d 20             	mov    0x20(%ebp),%edi
 80497c9:	89 c6                	mov    %eax,%esi
 80497cb:	f3 a4                	rep movsb %ds:(%esi),%es:(%edi)
 80497cd:	8b 85 b0 5f ff ff    	mov    -0xa050(%ebp),%eax
 80497d3:	89 04 24             	mov    %eax,(%esp)
 80497d6:	e8 8d f0 ff ff       	call   8048868 <close@plt>
 80497db:	b8 ff ff ff ff       	mov    $0xffffffff,%eax
 80497e0:	e9 54 05 00 00       	jmp    8049d39 <submitr+0x5e3>
 80497e5:	8d 5d d8             	lea    -0x28(%ebp),%ebx
 80497e8:	c7 03 00 00 00 00    	movl   $0x0,(%ebx)
 80497ee:	c7 43 04 00 00 00 00 	movl   $0x0,0x4(%ebx)
 80497f5:	c7 43 08 00 00 00 00 	movl   $0x0,0x8(%ebx)
 80497fc:	c7 43 0c 00 00 00 00 	movl   $0x0,0xc(%ebx)
 8049803:	66 c7 45 d8 02 00    	movw   $0x2,-0x28(%ebp)
 8049809:	8b 50 0c             	mov    0xc(%eax),%edx
 804980c:	89 54 24 08          	mov    %edx,0x8(%esp)
 8049810:	8d 55 dc             	lea    -0x24(%ebp),%edx
 8049813:	89 54 24 04          	mov    %edx,0x4(%esp)
 8049817:	8b 40 10             	mov    0x10(%eax),%eax
 804981a:	8b 00                	mov    (%eax),%eax
 804981c:	89 04 24             	mov    %eax,(%esp)
 804981f:	e8 d4 ef ff ff       	call   80487f8 <bcopy@plt>
 8049824:	0f b7 45 0c          	movzwl 0xc(%ebp),%eax
 8049828:	66 c1 c8 08          	ror    $0x8,%ax
 804982c:	66 89 45 da          	mov    %ax,-0x26(%ebp)
 8049830:	c7 44 24 08 10 00 00 	movl   $0x10,0x8(%esp)
 8049837:	00 
 8049838:	89 5c 24 04          	mov    %ebx,0x4(%esp)
 804983c:	8b 8d b0 5f ff ff    	mov    -0xa050(%ebp),%ecx
 8049842:	89 0c 24             	mov    %ecx,(%esp)
 8049845:	e8 de ee ff ff       	call   8048728 <connect@plt>
 804984a:	85 c0                	test   %eax,%eax
 804984c:	79 29                	jns    8049877 <submitr+0x121>
 804984e:	b8 d8 a5 04 08       	mov    $0x804a5d8,%eax
 8049853:	b9 27 00 00 00       	mov    $0x27,%ecx
 8049858:	8b 7d 20             	mov    0x20(%ebp),%edi
 804985b:	89 c6                	mov    %eax,%esi
 804985d:	f3 a4                	rep movsb %ds:(%esi),%es:(%edi)
 804985f:	8b 85 b0 5f ff ff    	mov    -0xa050(%ebp),%eax
 8049865:	89 04 24             	mov    %eax,(%esp)
 8049868:	e8 fb ef ff ff       	call   8048868 <close@plt>
 804986d:	b8 ff ff ff ff       	mov    $0xffffffff,%eax
 8049872:	e9 c2 04 00 00       	jmp    8049d39 <submitr+0x5e3>
 8049877:	ba ff ff ff ff       	mov    $0xffffffff,%edx
 804987c:	8b 7d 1c             	mov    0x1c(%ebp),%edi
 804987f:	b8 00 00 00 00       	mov    $0x0,%eax
 8049884:	89 d1                	mov    %edx,%ecx
 8049886:	f2 ae                	repnz scas %es:(%edi),%al
 8049888:	89 cb                	mov    %ecx,%ebx
 804988a:	f7 d3                	not    %ebx
 804988c:	8b 7d 10             	mov    0x10(%ebp),%edi
 804988f:	89 d1                	mov    %edx,%ecx
 8049891:	f2 ae                	repnz scas %es:(%edi),%al
 8049893:	89 8d b4 5f ff ff    	mov    %ecx,-0xa04c(%ebp)
 8049899:	8b 7d 14             	mov    0x14(%ebp),%edi
 804989c:	89 d1                	mov    %edx,%ecx
 804989e:	f2 ae                	repnz scas %es:(%edi),%al
 80498a0:	89 ce                	mov    %ecx,%esi
 80498a2:	f7 d6                	not    %esi
 80498a4:	8b 7d 18             	mov    0x18(%ebp),%edi
 80498a7:	89 d1                	mov    %edx,%ecx
 80498a9:	f2 ae                	repnz scas %es:(%edi),%al
 80498ab:	2b b5 b4 5f ff ff    	sub    -0xa04c(%ebp),%esi
 80498b1:	29 ce                	sub    %ecx,%esi
 80498b3:	8d 44 5b fd          	lea    -0x3(%ebx,%ebx,2),%eax
 80498b7:	8d 44 06 7b          	lea    0x7b(%esi,%eax,1),%eax
 80498bb:	3d 00 20 00 00       	cmp    $0x2000,%eax
 80498c0:	76 7c                	jbe    804993e <submitr+0x1e8>
 80498c2:	8b 75 20             	mov    0x20(%ebp),%esi
 80498c5:	c7 06 45 72 72 6f    	movl   $0x6f727245,(%esi)
 80498cb:	c7 46 04 72 3a 20 52 	movl   $0x52203a72,0x4(%esi)
 80498d2:	c7 46 08 65 73 75 6c 	movl   $0x6c757365,0x8(%esi)
 80498d9:	c7 46 0c 74 20 73 74 	movl   $0x74732074,0xc(%esi)
 80498e0:	c7 46 10 72 69 6e 67 	movl   $0x676e6972,0x10(%esi)
 80498e7:	c7 46 14 20 74 6f 6f 	movl   $0x6f6f7420,0x14(%esi)
 80498ee:	c7 46 18 20 6c 61 72 	movl   $0x72616c20,0x18(%esi)
 80498f5:	c7 46 1c 67 65 2e 20 	movl   $0x202e6567,0x1c(%esi)
 80498fc:	c7 46 20 49 6e 63 72 	movl   $0x72636e49,0x20(%esi)
 8049903:	c7 46 24 65 61 73 65 	movl   $0x65736165,0x24(%esi)
 804990a:	c7 46 28 20 53 55 42 	movl   $0x42555320,0x28(%esi)
 8049911:	c7 46 2c 4d 49 54 52 	movl   $0x5254494d,0x2c(%esi)
 8049918:	c7 46 30 5f 4d 41 58 	movl   $0x58414d5f,0x30(%esi)
 804991f:	c7 46 34 42 55 46 00 	movl   $0x465542,0x34(%esi)
 8049926:	8b bd b0 5f ff ff    	mov    -0xa050(%ebp),%edi
 804992c:	89 3c 24             	mov    %edi,(%esp)
 804992f:	e8 34 ef ff ff       	call   8048868 <close@plt>
 8049934:	b8 ff ff ff ff       	mov    $0xffffffff,%eax
 8049939:	e9 fb 03 00 00       	jmp    8049d39 <submitr+0x5e3>
 804993e:	8d 95 cc 9f ff ff    	lea    -0x6034(%ebp),%edx
 8049944:	b9 00 08 00 00       	mov    $0x800,%ecx
 8049949:	b8 00 00 00 00       	mov    $0x0,%eax
 804994e:	89 d7                	mov    %edx,%edi
 8049950:	f3 ab                	rep stos %eax,%es:(%edi)
 8049952:	8b 7d 1c             	mov    0x1c(%ebp),%edi
 8049955:	b9 ff ff ff ff       	mov    $0xffffffff,%ecx
 804995a:	f2 ae                	repnz scas %es:(%edi),%al
 804995c:	f7 d1                	not    %ecx
 804995e:	89 cf                	mov    %ecx,%edi
 8049960:	83 ef 01             	sub    $0x1,%edi
 8049963:	0f 84 db 03 00 00    	je     8049d44 <submitr+0x5ee>
 8049969:	89 d6                	mov    %edx,%esi
 804996b:	bb 00 00 00 00       	mov    $0x0,%ebx
 8049970:	89 bd b4 5f ff ff    	mov    %edi,-0xa04c(%ebp)
 8049976:	8b 7d 1c             	mov    0x1c(%ebp),%edi
 8049979:	0f b6 04 1f          	movzbl (%edi,%ebx,1),%eax
 804997d:	3c 2a                	cmp    $0x2a,%al
 804997f:	74 29                	je     80499aa <submitr+0x254>
 8049981:	3c 2d                	cmp    $0x2d,%al
 8049983:	74 25                	je     80499aa <submitr+0x254>
 8049985:	3c 2e                	cmp    $0x2e,%al
 8049987:	74 21                	je     80499aa <submitr+0x254>
 8049989:	3c 5f                	cmp    $0x5f,%al
 804998b:	90                   	nop
 804998c:	8d 74 26 00          	lea    0x0(%esi,%eiz,1),%esi
 8049990:	74 18                	je     80499aa <submitr+0x254>
 8049992:	8d 50 d0             	lea    -0x30(%eax),%edx
 8049995:	80 fa 09             	cmp    $0x9,%dl
 8049998:	76 10                	jbe    80499aa <submitr+0x254>
 804999a:	8d 50 bf             	lea    -0x41(%eax),%edx
 804999d:	80 fa 19             	cmp    $0x19,%dl
 80499a0:	76 08                	jbe    80499aa <submitr+0x254>
 80499a2:	8d 50 9f             	lea    -0x61(%eax),%edx
 80499a5:	80 fa 19             	cmp    $0x19,%dl
 80499a8:	77 07                	ja     80499b1 <submitr+0x25b>
 80499aa:	88 06                	mov    %al,(%esi)
 80499ac:	83 c6 01             	add    $0x1,%esi
 80499af:	eb 55                	jmp    8049a06 <submitr+0x2b0>
 80499b1:	3c 20                	cmp    $0x20,%al
 80499b3:	75 08                	jne    80499bd <submitr+0x267>
 80499b5:	c6 06 2b             	movb   $0x2b,(%esi)
 80499b8:	83 c6 01             	add    $0x1,%esi
 80499bb:	eb 49                	jmp    8049a06 <submitr+0x2b0>
 80499bd:	8d 50 e0             	lea    -0x20(%eax),%edx
 80499c0:	80 fa 5f             	cmp    $0x5f,%dl
 80499c3:	76 04                	jbe    80499c9 <submitr+0x273>
 80499c5:	3c 09                	cmp    $0x9,%al
 80499c7:	75 51                	jne    8049a1a <submitr+0x2c4>
 80499c9:	0f b6 c0             	movzbl %al,%eax
 80499cc:	89 44 24 08          	mov    %eax,0x8(%esp)
 80499d0:	c7 44 24 04 14 a5 04 	movl   $0x804a514,0x4(%esp)
 80499d7:	08 
 80499d8:	8d 85 c0 5f ff ff    	lea    -0xa040(%ebp),%eax
 80499de:	89 04 24             	mov    %eax,(%esp)
 80499e1:	e8 32 ed ff ff       	call   8048718 <sprintf@plt>
 80499e6:	0f b6 85 c0 5f ff ff 	movzbl -0xa040(%ebp),%eax
 80499ed:	88 06                	mov    %al,(%esi)
 80499ef:	0f b6 85 c1 5f ff ff 	movzbl -0xa03f(%ebp),%eax
 80499f6:	88 46 01             	mov    %al,0x1(%esi)
 80499f9:	0f b6 85 c2 5f ff ff 	movzbl -0xa03e(%ebp),%eax
 8049a00:	88 46 02             	mov    %al,0x2(%esi)
 8049a03:	83 c6 03             	add    $0x3,%esi
 8049a06:	83 c3 01             	add    $0x1,%ebx
 8049a09:	3b 9d b4 5f ff ff    	cmp    -0xa04c(%ebp),%ebx
 8049a0f:	0f 85 64 ff ff ff    	jne    8049979 <submitr+0x223>
 8049a15:	e9 2a 03 00 00       	jmp    8049d44 <submitr+0x5ee>
 8049a1a:	b8 00 a6 04 08       	mov    $0x804a600,%eax
 8049a1f:	b9 43 00 00 00       	mov    $0x43,%ecx
 8049a24:	8b 7d 20             	mov    0x20(%ebp),%edi
 8049a27:	89 c6                	mov    %eax,%esi
 8049a29:	f3 a4                	rep movsb %ds:(%esi),%es:(%edi)
 8049a2b:	8b 85 b0 5f ff ff    	mov    -0xa050(%ebp),%eax
 8049a31:	89 04 24             	mov    %eax,(%esp)
 8049a34:	e8 2f ee ff ff       	call   8048868 <close@plt>
 8049a39:	b8 ff ff ff ff       	mov    $0xffffffff,%eax
 8049a3e:	e9 f6 02 00 00       	jmp    8049d39 <submitr+0x5e3>
 8049a43:	01 c6                	add    %eax,%esi
 8049a45:	89 5c 24 08          	mov    %ebx,0x8(%esp)
 8049a49:	89 74 24 04          	mov    %esi,0x4(%esp)
 8049a4d:	89 3c 24             	mov    %edi,(%esp)
 8049a50:	e8 23 ed ff ff       	call   8048778 <write@plt>
 8049a55:	85 c0                	test   %eax,%eax
 8049a57:	7f 0f                	jg     8049a68 <submitr+0x312>
 8049a59:	e8 aa ec ff ff       	call   8048708 <__errno_location@plt>
 8049a5e:	83 38 04             	cmpl   $0x4,(%eax)
 8049a61:	75 13                	jne    8049a76 <submitr+0x320>
 8049a63:	b8 00 00 00 00       	mov    $0x0,%eax
 8049a68:	29 c3                	sub    %eax,%ebx
 8049a6a:	75 d7                	jne    8049a43 <submitr+0x2ed>
 8049a6c:	8b bd b4 5f ff ff    	mov    -0xa04c(%ebp),%edi
 8049a72:	85 ff                	test   %edi,%edi
 8049a74:	79 64                	jns    8049ada <submitr+0x384>
 8049a76:	8b 7d 20             	mov    0x20(%ebp),%edi
 8049a79:	be 44 a6 04 08       	mov    $0x804a644,%esi
 8049a7e:	b8 2c 00 00 00       	mov    $0x2c,%eax
 8049a83:	f7 c7 01 00 00 00    	test   $0x1,%edi
 8049a89:	74 04                	je     8049a8f <submitr+0x339>
 8049a8b:	a4                   	movsb  %ds:(%esi),%es:(%edi)
 8049a8c:	83 e8 01             	sub    $0x1,%eax
 8049a8f:	f7 c7 02 00 00 00    	test   $0x2,%edi
 8049a95:	74 05                	je     8049a9c <submitr+0x346>
 8049a97:	66 a5                	movsw  %ds:(%esi),%es:(%edi)
 8049a99:	83 e8 02             	sub    $0x2,%eax
 8049a9c:	89 c1                	mov    %eax,%ecx
 8049a9e:	c1 e9 02             	shr    $0x2,%ecx
 8049aa1:	f3 a5                	rep movsl %ds:(%esi),%es:(%edi)
 8049aa3:	ba 00 00 00 00       	mov    $0x0,%edx
 8049aa8:	a8 02                	test   $0x2,%al
 8049aaa:	74 0b                	je     8049ab7 <submitr+0x361>
 8049aac:	0f b7 0c 16          	movzwl (%esi,%edx,1),%ecx
 8049ab0:	66 89 0c 17          	mov    %cx,(%edi,%edx,1)
 8049ab4:	83 c2 02             	add    $0x2,%edx
 8049ab7:	a8 01                	test   $0x1,%al
 8049ab9:	74 07                	je     8049ac2 <submitr+0x36c>
 8049abb:	0f b6 04 16          	movzbl (%esi,%edx,1),%eax
 8049abf:	88 04 17             	mov    %al,(%edi,%edx,1)
 8049ac2:	8b 8d b0 5f ff ff    	mov    -0xa050(%ebp),%ecx
 8049ac8:	89 0c 24             	mov    %ecx,(%esp)
 8049acb:	e8 98 ed ff ff       	call   8048868 <close@plt>
 8049ad0:	b8 ff ff ff ff       	mov    $0xffffffff,%eax
 8049ad5:	e9 5f 02 00 00       	jmp    8049d39 <submitr+0x5e3>
 8049ada:	8b b5 b0 5f ff ff    	mov    -0xa050(%ebp),%esi
 8049ae0:	89 b5 cc df ff ff    	mov    %esi,-0x2034(%ebp)
 8049ae6:	c7 85 d0 df ff ff 00 	movl   $0x0,-0x2030(%ebp)
 8049aed:	00 00 00 
 8049af0:	8d 85 cc df ff ff    	lea    -0x2034(%ebp),%eax
 8049af6:	8d 95 d8 df ff ff    	lea    -0x2028(%ebp),%edx
 8049afc:	89 95 d4 df ff ff    	mov    %edx,-0x202c(%ebp)
 8049b02:	8d 95 cc bf ff ff    	lea    -0x4034(%ebp),%edx
 8049b08:	b9 00 20 00 00       	mov    $0x2000,%ecx
 8049b0d:	e8 3a fb ff ff       	call   804964c <rio_readlineb>
 8049b12:	85 c0                	test   %eax,%eax
 8049b14:	7f 29                	jg     8049b3f <submitr+0x3e9>
 8049b16:	b8 70 a6 04 08       	mov    $0x804a670,%eax
 8049b1b:	b9 36 00 00 00       	mov    $0x36,%ecx
 8049b20:	8b 7d 20             	mov    0x20(%ebp),%edi
 8049b23:	89 c6                	mov    %eax,%esi
 8049b25:	f3 a4                	rep movsb %ds:(%esi),%es:(%edi)
 8049b27:	8b 85 b0 5f ff ff    	mov    -0xa050(%ebp),%eax
 8049b2d:	89 04 24             	mov    %eax,(%esp)
 8049b30:	e8 33 ed ff ff       	call   8048868 <close@plt>
 8049b35:	b8 ff ff ff ff       	mov    $0xffffffff,%eax
 8049b3a:	e9 fa 01 00 00       	jmp    8049d39 <submitr+0x5e3>
 8049b3f:	8d bd cc bf ff ff    	lea    -0x4034(%ebp),%edi
 8049b45:	8d 85 c8 5f ff ff    	lea    -0xa038(%ebp),%eax
 8049b4b:	89 44 24 10          	mov    %eax,0x10(%esp)
 8049b4f:	8d 85 c8 7f ff ff    	lea    -0x8038(%ebp),%eax
 8049b55:	89 44 24 0c          	mov    %eax,0xc(%esp)
 8049b59:	8d 85 cc 7f ff ff    	lea    -0x8034(%ebp),%eax
 8049b5f:	89 44 24 08          	mov    %eax,0x8(%esp)
 8049b63:	c7 44 24 04 1b a5 04 	movl   $0x804a51b,0x4(%esp)
 8049b6a:	08 
 8049b6b:	89 3c 24             	mov    %edi,(%esp)
 8049b6e:	e8 e5 eb ff ff       	call   8048758 <__isoc99_sscanf@plt>
 8049b73:	8b 85 c8 7f ff ff    	mov    -0x8038(%ebp),%eax
 8049b79:	8d 9d cc bf ff ff    	lea    -0x4034(%ebp),%ebx
 8049b7f:	8d b5 cc df ff ff    	lea    -0x2034(%ebp),%esi
 8049b85:	3d c8 00 00 00       	cmp    $0xc8,%eax
 8049b8a:	0f 84 bd 00 00 00    	je     8049c4d <submitr+0x4f7>
 8049b90:	8d 95 c8 5f ff ff    	lea    -0xa038(%ebp),%edx
 8049b96:	89 54 24 0c          	mov    %edx,0xc(%esp)
 8049b9a:	89 44 24 08          	mov    %eax,0x8(%esp)
 8049b9e:	c7 44 24 04 a8 a6 04 	movl   $0x804a6a8,0x4(%esp)
 8049ba5:	08 
 8049ba6:	8b 4d 20             	mov    0x20(%ebp),%ecx
 8049ba9:	89 0c 24             	mov    %ecx,(%esp)
 8049bac:	e8 67 eb ff ff       	call   8048718 <sprintf@plt>
 8049bb1:	8b b5 b0 5f ff ff    	mov    -0xa050(%ebp),%esi
 8049bb7:	89 34 24             	mov    %esi,(%esp)
 8049bba:	e8 a9 ec ff ff       	call   8048868 <close@plt>
 8049bbf:	b8 ff ff ff ff       	mov    $0xffffffff,%eax
 8049bc4:	e9 70 01 00 00       	jmp    8049d39 <submitr+0x5e3>
 8049bc9:	b9 00 20 00 00       	mov    $0x2000,%ecx
 8049bce:	89 da                	mov    %ebx,%edx
 8049bd0:	89 f0                	mov    %esi,%eax
 8049bd2:	e8 75 fa ff ff       	call   804964c <rio_readlineb>
 8049bd7:	85 c0                	test   %eax,%eax
 8049bd9:	7f 72                	jg     8049c4d <submitr+0x4f7>
 8049bdb:	8b 7d 20             	mov    0x20(%ebp),%edi
 8049bde:	c7 07 45 72 72 6f    	movl   $0x6f727245,(%edi)
 8049be4:	c7 47 04 72 3a 20 43 	movl   $0x43203a72,0x4(%edi)
 8049beb:	c7 47 08 6c 69 65 6e 	movl   $0x6e65696c,0x8(%edi)
 8049bf2:	c7 47 0c 74 20 75 6e 	movl   $0x6e752074,0xc(%edi)
 8049bf9:	c7 47 10 61 62 6c 65 	movl   $0x656c6261,0x10(%edi)
 8049c00:	c7 47 14 20 74 6f 20 	movl   $0x206f7420,0x14(%edi)
 8049c07:	c7 47 18 72 65 61 64 	movl   $0x64616572,0x18(%edi)
 8049c0e:	c7 47 1c 20 68 65 61 	movl   $0x61656820,0x1c(%edi)
 8049c15:	c7 47 20 64 65 72 73 	movl   $0x73726564,0x20(%edi)
 8049c1c:	c7 47 24 20 66 72 6f 	movl   $0x6f726620,0x24(%edi)
 8049c23:	c7 47 28 6d 20 73 65 	movl   $0x6573206d,0x28(%edi)
 8049c2a:	c7 47 2c 72 76 65 72 	movl   $0x72657672,0x2c(%edi)
 8049c31:	c6 47 30 00          	movb   $0x0,0x30(%edi)
 8049c35:	8b 85 b0 5f ff ff    	mov    -0xa050(%ebp),%eax
 8049c3b:	89 04 24             	mov    %eax,(%esp)
 8049c3e:	e8 25 ec ff ff       	call   8048868 <close@plt>
 8049c43:	b8 ff ff ff ff       	mov    $0xffffffff,%eax
 8049c48:	e9 ec 00 00 00       	jmp    8049d39 <submitr+0x5e3>
 8049c4d:	b8 2c a5 04 08       	mov    $0x804a52c,%eax
 8049c52:	0f b6 13             	movzbl (%ebx),%edx
 8049c55:	3a 10                	cmp    (%eax),%dl
 8049c57:	0f 85 6c ff ff ff    	jne    8049bc9 <submitr+0x473>
 8049c5d:	0f b6 53 01          	movzbl 0x1(%ebx),%edx
 8049c61:	3a 50 01             	cmp    0x1(%eax),%dl
 8049c64:	0f 85 5f ff ff ff    	jne    8049bc9 <submitr+0x473>
 8049c6a:	0f b6 53 02          	movzbl 0x2(%ebx),%edx
 8049c6e:	3a 50 02             	cmp    0x2(%eax),%dl
 8049c71:	0f 85 52 ff ff ff    	jne    8049bc9 <submitr+0x473>
 8049c77:	8d 95 cc bf ff ff    	lea    -0x4034(%ebp),%edx
 8049c7d:	8d 85 cc df ff ff    	lea    -0x2034(%ebp),%eax
 8049c83:	b9 00 20 00 00       	mov    $0x2000,%ecx
 8049c88:	e8 bf f9 ff ff       	call   804964c <rio_readlineb>
 8049c8d:	85 c0                	test   %eax,%eax
 8049c8f:	7f 61                	jg     8049cf2 <submitr+0x59c>
 8049c91:	8b 7d 20             	mov    0x20(%ebp),%edi
 8049c94:	be d8 a6 04 08       	mov    $0x804a6d8,%esi
 8049c99:	b8 38 00 00 00       	mov    $0x38,%eax
 8049c9e:	f7 c7 01 00 00 00    	test   $0x1,%edi
 8049ca4:	74 04                	je     8049caa <submitr+0x554>
 8049ca6:	a4                   	movsb  %ds:(%esi),%es:(%edi)
 8049ca7:	83 e8 01             	sub    $0x1,%eax
 8049caa:	f7 c7 02 00 00 00    	test   $0x2,%edi
 8049cb0:	74 05                	je     8049cb7 <submitr+0x561>
 8049cb2:	66 a5                	movsw  %ds:(%esi),%es:(%edi)
 8049cb4:	83 e8 02             	sub    $0x2,%eax
 8049cb7:	89 c1                	mov    %eax,%ecx
 8049cb9:	c1 e9 02             	shr    $0x2,%ecx
 8049cbc:	f3 a5                	rep movsl %ds:(%esi),%es:(%edi)
 8049cbe:	ba 00 00 00 00       	mov    $0x0,%edx
 8049cc3:	a8 02                	test   $0x2,%al
 8049cc5:	74 0b                	je     8049cd2 <submitr+0x57c>
 8049cc7:	0f b7 0c 16          	movzwl (%esi,%edx,1),%ecx
 8049ccb:	66 89 0c 17          	mov    %cx,(%edi,%edx,1)
 8049ccf:	83 c2 02             	add    $0x2,%edx
 8049cd2:	a8 01                	test   $0x1,%al
 8049cd4:	74 07                	je     8049cdd <submitr+0x587>
 8049cd6:	0f b6 04 16          	movzbl (%esi,%edx,1),%eax
 8049cda:	88 04 17             	mov    %al,(%edi,%edx,1)
 8049cdd:	8b 8d b0 5f ff ff    	mov    -0xa050(%ebp),%ecx
 8049ce3:	89 0c 24             	mov    %ecx,(%esp)
 8049ce6:	e8 7d eb ff ff       	call   8048868 <close@plt>
 8049ceb:	b8 ff ff ff ff       	mov    $0xffffffff,%eax
 8049cf0:	eb 47                	jmp    8049d39 <submitr+0x5e3>
 8049cf2:	89 7c 24 04          	mov    %edi,0x4(%esp)
 8049cf6:	8b 75 20             	mov    0x20(%ebp),%esi
 8049cf9:	89 34 24             	mov    %esi,(%esp)
 8049cfc:	e8 37 eb ff ff       	call   8048838 <strcpy@plt>
 8049d01:	8b bd b0 5f ff ff    	mov    -0xa050(%ebp),%edi
 8049d07:	89 3c 24             	mov    %edi,(%esp)
 8049d0a:	e8 59 eb ff ff       	call   8048868 <close@plt>
 8049d0f:	b8 2f a5 04 08       	mov    $0x804a52f,%eax
 8049d14:	0f b6 0e             	movzbl (%esi),%ecx
 8049d17:	3a 08                	cmp    (%eax),%cl
 8049d19:	75 19                	jne    8049d34 <submitr+0x5de>
 8049d1b:	0f b6 4e 01          	movzbl 0x1(%esi),%ecx
 8049d1f:	3a 48 01             	cmp    0x1(%eax),%cl
 8049d22:	75 10                	jne    8049d34 <submitr+0x5de>
 8049d24:	0f b6 56 02          	movzbl 0x2(%esi),%edx
 8049d28:	3a 50 02             	cmp    0x2(%eax),%dl
 8049d2b:	75 07                	jne    8049d34 <submitr+0x5de>
 8049d2d:	b8 00 00 00 00       	mov    $0x0,%eax
 8049d32:	eb 05                	jmp    8049d39 <submitr+0x5e3>
 8049d34:	b8 ff ff ff ff       	mov    $0xffffffff,%eax
 8049d39:	81 c4 6c a0 00 00    	add    $0xa06c,%esp
 8049d3f:	5b                   	pop    %ebx
 8049d40:	5e                   	pop    %esi
 8049d41:	5f                   	pop    %edi
 8049d42:	5d                   	pop    %ebp
 8049d43:	c3                   	ret    
 8049d44:	8d 85 cc 9f ff ff    	lea    -0x6034(%ebp),%eax
 8049d4a:	89 44 24 14          	mov    %eax,0x14(%esp)
 8049d4e:	8b 45 18             	mov    0x18(%ebp),%eax
 8049d51:	89 44 24 10          	mov    %eax,0x10(%esp)
 8049d55:	8b 4d 14             	mov    0x14(%ebp),%ecx
 8049d58:	89 4c 24 0c          	mov    %ecx,0xc(%esp)
 8049d5c:	8b 75 10             	mov    0x10(%ebp),%esi
 8049d5f:	89 74 24 08          	mov    %esi,0x8(%esp)
 8049d63:	c7 44 24 04 10 a7 04 	movl   $0x804a710,0x4(%esp)
 8049d6a:	08 
 8049d6b:	8d bd cc bf ff ff    	lea    -0x4034(%ebp),%edi
 8049d71:	89 3c 24             	mov    %edi,(%esp)
 8049d74:	e8 9f e9 ff ff       	call   8048718 <sprintf@plt>
 8049d79:	b8 00 00 00 00       	mov    $0x0,%eax
 8049d7e:	b9 ff ff ff ff       	mov    $0xffffffff,%ecx
 8049d83:	f2 ae                	repnz scas %es:(%edi),%al
 8049d85:	f7 d1                	not    %ecx
 8049d87:	89 cf                	mov    %ecx,%edi
 8049d89:	83 ef 01             	sub    $0x1,%edi
 8049d8c:	0f 84 48 fd ff ff    	je     8049ada <submitr+0x384>
 8049d92:	89 fb                	mov    %edi,%ebx
 8049d94:	8d b5 cc bf ff ff    	lea    -0x4034(%ebp),%esi
 8049d9a:	89 bd b4 5f ff ff    	mov    %edi,-0xa04c(%ebp)
 8049da0:	8b bd b0 5f ff ff    	mov    -0xa050(%ebp),%edi
 8049da6:	e9 9a fc ff ff       	jmp    8049a45 <submitr+0x2ef>

08049dab <driver_post>:
 8049dab:	55                   	push   %ebp
 8049dac:	89 e5                	mov    %esp,%ebp
 8049dae:	53                   	push   %ebx
 8049daf:	83 ec 24             	sub    $0x24,%esp
 8049db2:	8b 45 08             	mov    0x8(%ebp),%eax
 8049db5:	8b 55 0c             	mov    0xc(%ebp),%edx
 8049db8:	8b 5d 14             	mov    0x14(%ebp),%ebx
 8049dbb:	83 7d 10 00          	cmpl   $0x0,0x10(%ebp)
 8049dbf:	74 20                	je     8049de1 <driver_post+0x36>
 8049dc1:	89 54 24 04          	mov    %edx,0x4(%esp)
 8049dc5:	c7 04 24 32 a5 04 08 	movl   $0x804a532,(%esp)
 8049dcc:	e8 77 ea ff ff       	call   8048848 <printf@plt>
 8049dd1:	66 c7 03 4f 4b       	movw   $0x4b4f,(%ebx)
 8049dd6:	c6 43 02 00          	movb   $0x0,0x2(%ebx)
 8049dda:	b8 00 00 00 00       	mov    $0x0,%eax
 8049ddf:	eb 49                	jmp    8049e2a <driver_post+0x7f>
 8049de1:	85 c0                	test   %eax,%eax
 8049de3:	74 37                	je     8049e1c <driver_post+0x71>
 8049de5:	80 38 00             	cmpb   $0x0,(%eax)
 8049de8:	74 32                	je     8049e1c <driver_post+0x71>
 8049dea:	89 5c 24 18          	mov    %ebx,0x18(%esp)
 8049dee:	89 54 24 14          	mov    %edx,0x14(%esp)
 8049df2:	c7 44 24 10 49 a5 04 	movl   $0x804a549,0x10(%esp)
 8049df9:	08 
 8049dfa:	89 44 24 0c          	mov    %eax,0xc(%esp)
 8049dfe:	c7 44 24 08 52 a5 04 	movl   $0x804a552,0x8(%esp)
 8049e05:	08 
 8049e06:	c7 44 24 04 6e 3b 00 	movl   $0x3b6e,0x4(%esp)
 8049e0d:	00 
 8049e0e:	c7 04 24 fe a1 04 08 	movl   $0x804a1fe,(%esp)
 8049e15:	e8 3c f9 ff ff       	call   8049756 <submitr>
 8049e1a:	eb 0e                	jmp    8049e2a <driver_post+0x7f>
 8049e1c:	66 c7 03 4f 4b       	movw   $0x4b4f,(%ebx)
 8049e21:	c6 43 02 00          	movb   $0x0,0x2(%ebx)
 8049e25:	b8 00 00 00 00       	mov    $0x0,%eax
 8049e2a:	83 c4 24             	add    $0x24,%esp
 8049e2d:	5b                   	pop    %ebx
 8049e2e:	5d                   	pop    %ebp
 8049e2f:	c3                   	ret    

08049e30 <sigalrm_handler>:
 8049e30:	55                   	push   %ebp
 8049e31:	89 e5                	mov    %esp,%ebp
 8049e33:	83 ec 18             	sub    $0x18,%esp
 8049e36:	c7 44 24 08 00 00 00 	movl   $0x0,0x8(%esp)
 8049e3d:	00 
 8049e3e:	c7 44 24 04 5c a7 04 	movl   $0x804a75c,0x4(%esp)
 8049e45:	08 
 8049e46:	a1 a0 b8 04 08       	mov    0x804b8a0,%eax
 8049e4b:	89 04 24             	mov    %eax,(%esp)
 8049e4e:	e8 25 ea ff ff       	call   8048878 <fprintf@plt>
 8049e53:	c7 04 24 01 00 00 00 	movl   $0x1,(%esp)
 8049e5a:	e8 69 ea ff ff       	call   80488c8 <exit@plt>
 8049e5f:	90                   	nop

08049e60 <__libc_csu_fini>:
 8049e60:	55                   	push   %ebp
 8049e61:	89 e5                	mov    %esp,%ebp
 8049e63:	5d                   	pop    %ebp
 8049e64:	c3                   	ret    
 8049e65:	66 66 2e 0f 1f 84 00 	nopw   %cs:0x0(%eax,%eax,1)
 8049e6c:	00 00 00 00 

08049e70 <__libc_csu_init>:
 8049e70:	55                   	push   %ebp
 8049e71:	89 e5                	mov    %esp,%ebp
 8049e73:	57                   	push   %edi
 8049e74:	56                   	push   %esi
 8049e75:	53                   	push   %ebx
 8049e76:	e8 4f 00 00 00       	call   8049eca <__i686.get_pc_thunk.bx>
 8049e7b:	81 c3 65 12 00 00    	add    $0x1265,%ebx
 8049e81:	83 ec 1c             	sub    $0x1c,%esp
 8049e84:	e8 3f e8 ff ff       	call   80486c8 <_init>
 8049e89:	8d bb 20 ff ff ff    	lea    -0xe0(%ebx),%edi
 8049e8f:	8d 83 20 ff ff ff    	lea    -0xe0(%ebx),%eax
 8049e95:	29 c7                	sub    %eax,%edi
 8049e97:	c1 ff 02             	sar    $0x2,%edi
 8049e9a:	85 ff                	test   %edi,%edi
 8049e9c:	74 24                	je     8049ec2 <__libc_csu_init+0x52>
 8049e9e:	31 f6                	xor    %esi,%esi
 8049ea0:	8b 45 10             	mov    0x10(%ebp),%eax
 8049ea3:	89 44 24 08          	mov    %eax,0x8(%esp)
 8049ea7:	8b 45 0c             	mov    0xc(%ebp),%eax
 8049eaa:	89 44 24 04          	mov    %eax,0x4(%esp)
 8049eae:	8b 45 08             	mov    0x8(%ebp),%eax
 8049eb1:	89 04 24             	mov    %eax,(%esp)
 8049eb4:	ff 94 b3 20 ff ff ff 	call   *-0xe0(%ebx,%esi,4)
 8049ebb:	83 c6 01             	add    $0x1,%esi
 8049ebe:	39 fe                	cmp    %edi,%esi
 8049ec0:	72 de                	jb     8049ea0 <__libc_csu_init+0x30>
 8049ec2:	83 c4 1c             	add    $0x1c,%esp
 8049ec5:	5b                   	pop    %ebx
 8049ec6:	5e                   	pop    %esi
 8049ec7:	5f                   	pop    %edi
 8049ec8:	5d                   	pop    %ebp
 8049ec9:	c3                   	ret    

08049eca <__i686.get_pc_thunk.bx>:
 8049eca:	8b 1c 24             	mov    (%esp),%ebx
 8049ecd:	c3                   	ret    
 8049ece:	90                   	nop
 8049ecf:	90                   	nop

08049ed0 <__do_global_ctors_aux>:
 8049ed0:	55                   	push   %ebp
 8049ed1:	89 e5                	mov    %esp,%ebp
 8049ed3:	53                   	push   %ebx
 8049ed4:	83 ec 04             	sub    $0x4,%esp
 8049ed7:	a1 00 b0 04 08       	mov    0x804b000,%eax
 8049edc:	83 f8 ff             	cmp    $0xffffffff,%eax
 8049edf:	74 13                	je     8049ef4 <__do_global_ctors_aux+0x24>
 8049ee1:	bb 00 b0 04 08       	mov    $0x804b000,%ebx
 8049ee6:	66 90                	xchg   %ax,%ax
 8049ee8:	83 eb 04             	sub    $0x4,%ebx
 8049eeb:	ff d0                	call   *%eax
 8049eed:	8b 03                	mov    (%ebx),%eax
 8049eef:	83 f8 ff             	cmp    $0xffffffff,%eax
 8049ef2:	75 f4                	jne    8049ee8 <__do_global_ctors_aux+0x18>
 8049ef4:	83 c4 04             	add    $0x4,%esp
 8049ef7:	5b                   	pop    %ebx
 8049ef8:	5d                   	pop    %ebp
 8049ef9:	c3                   	ret    
 8049efa:	90                   	nop
 8049efb:	90                   	nop

Disassembly of section .fini:

08049efc <_fini>:
 8049efc:	55                   	push   %ebp
 8049efd:	89 e5                	mov    %esp,%ebp
 8049eff:	53                   	push   %ebx
 8049f00:	83 ec 04             	sub    $0x4,%esp
 8049f03:	e8 00 00 00 00       	call   8049f08 <_fini+0xc>
 8049f08:	5b                   	pop    %ebx
 8049f09:	81 c3 d8 11 00 00    	add    $0x11d8,%ebx
 8049f0f:	e8 fc e9 ff ff       	call   8048910 <__do_global_dtors_aux>
 8049f14:	59                   	pop    %ecx
 8049f15:	5b                   	pop    %ebx
 8049f16:	c9                   	leave  
 8049f17:	c3                   	ret    
